
KinematicFW.elf:     file format elf32-littlearm

Sections:
Idx Name          Size      VMA       LMA       File off  Algn
  0 .isr_vector   000001c8  08000000  08000000  00010000  2**0
                  CONTENTS, ALLOC, LOAD, READONLY, DATA
  1 .text         00003348  080001c8  080001c8  000101c8  2**3
                  CONTENTS, ALLOC, LOAD, READONLY, CODE
  2 .rodata       0000007c  08003510  08003510  00013510  2**0
                  CONTENTS, ALLOC, LOAD, READONLY, DATA
  3 .ARM          00000008  0800358c  0800358c  0001358c  2**2
                  CONTENTS, ALLOC, LOAD, READONLY, DATA
  4 .init_array   00000004  08003594  08003594  00013594  2**2
                  CONTENTS, ALLOC, LOAD, DATA
  5 .fini_array   00000004  08003598  08003598  00013598  2**2
                  CONTENTS, ALLOC, LOAD, DATA
  6 .data         00000028  20000000  0800359c  00020000  2**2
                  CONTENTS, ALLOC, LOAD, DATA
  7 .bss          00000724  20000028  080035c4  00020028  2**3
                  ALLOC
  8 ._user_heap_stack 00000600  2000074c  080035c4  0002074c  2**0
                  ALLOC
  9 .ARM.attributes 00000030  00000000  00000000  00020028  2**0
                  CONTENTS, READONLY
 10 .debug_info   000220ac  00000000  00000000  00020058  2**0
                  CONTENTS, READONLY, DEBUGGING
 11 .debug_abbrev 00004040  00000000  00000000  00042104  2**0
                  CONTENTS, READONLY, DEBUGGING
 12 .debug_loc    0000a736  00000000  00000000  00046144  2**0
                  CONTENTS, READONLY, DEBUGGING
 13 .debug_aranges 00000de0  00000000  00000000  00050880  2**3
                  CONTENTS, READONLY, DEBUGGING
 14 .debug_ranges 000013d0  00000000  00000000  00051660  2**3
                  CONTENTS, READONLY, DEBUGGING
 15 .debug_line   00008b01  00000000  00000000  00052a30  2**0
                  CONTENTS, READONLY, DEBUGGING
 16 .debug_str    00004c72  00000000  00000000  0005b531  2**0
                  CONTENTS, READONLY, DEBUGGING
 17 .comment      0000007c  00000000  00000000  000601a3  2**0
                  CONTENTS, READONLY
 18 .debug_frame  00002a1c  00000000  00000000  00060220  2**2
                  CONTENTS, READONLY, DEBUGGING

Disassembly of section .text:

080001c8 <__do_global_dtors_aux>:
 80001c8:	b510      	push	{r4, lr}
 80001ca:	4c05      	ldr	r4, [pc, #20]	; (80001e0 <__do_global_dtors_aux+0x18>)
 80001cc:	7823      	ldrb	r3, [r4, #0]
 80001ce:	b933      	cbnz	r3, 80001de <__do_global_dtors_aux+0x16>
 80001d0:	4b04      	ldr	r3, [pc, #16]	; (80001e4 <__do_global_dtors_aux+0x1c>)
 80001d2:	b113      	cbz	r3, 80001da <__do_global_dtors_aux+0x12>
 80001d4:	4804      	ldr	r0, [pc, #16]	; (80001e8 <__do_global_dtors_aux+0x20>)
 80001d6:	f3af 8000 	nop.w
 80001da:	2301      	movs	r3, #1
 80001dc:	7023      	strb	r3, [r4, #0]
 80001de:	bd10      	pop	{r4, pc}
 80001e0:	20000028 	.word	0x20000028
 80001e4:	00000000 	.word	0x00000000
 80001e8:	080034f8 	.word	0x080034f8

080001ec <frame_dummy>:
 80001ec:	b508      	push	{r3, lr}
 80001ee:	4b03      	ldr	r3, [pc, #12]	; (80001fc <frame_dummy+0x10>)
 80001f0:	b11b      	cbz	r3, 80001fa <frame_dummy+0xe>
 80001f2:	4903      	ldr	r1, [pc, #12]	; (8000200 <frame_dummy+0x14>)
 80001f4:	4803      	ldr	r0, [pc, #12]	; (8000204 <frame_dummy+0x18>)
 80001f6:	f3af 8000 	nop.w
 80001fa:	bd08      	pop	{r3, pc}
 80001fc:	00000000 	.word	0x00000000
 8000200:	2000002c 	.word	0x2000002c
 8000204:	080034f8 	.word	0x080034f8

08000208 <__aeabi_drsub>:
 8000208:	f081 4100 	eor.w	r1, r1, #2147483648	; 0x80000000
 800020c:	e002      	b.n	8000214 <__adddf3>
 800020e:	bf00      	nop

08000210 <__aeabi_dsub>:
 8000210:	f083 4300 	eor.w	r3, r3, #2147483648	; 0x80000000

08000214 <__adddf3>:
 8000214:	b530      	push	{r4, r5, lr}
 8000216:	ea4f 0441 	mov.w	r4, r1, lsl #1
 800021a:	ea4f 0543 	mov.w	r5, r3, lsl #1
 800021e:	ea94 0f05 	teq	r4, r5
 8000222:	bf08      	it	eq
 8000224:	ea90 0f02 	teqeq	r0, r2
 8000228:	bf1f      	itttt	ne
 800022a:	ea54 0c00 	orrsne.w	ip, r4, r0
 800022e:	ea55 0c02 	orrsne.w	ip, r5, r2
 8000232:	ea7f 5c64 	mvnsne.w	ip, r4, asr #21
 8000236:	ea7f 5c65 	mvnsne.w	ip, r5, asr #21
 800023a:	f000 80e2 	beq.w	8000402 <__adddf3+0x1ee>
 800023e:	ea4f 5454 	mov.w	r4, r4, lsr #21
 8000242:	ebd4 5555 	rsbs	r5, r4, r5, lsr #21
 8000246:	bfb8      	it	lt
 8000248:	426d      	neglt	r5, r5
 800024a:	dd0c      	ble.n	8000266 <__adddf3+0x52>
 800024c:	442c      	add	r4, r5
 800024e:	ea80 0202 	eor.w	r2, r0, r2
 8000252:	ea81 0303 	eor.w	r3, r1, r3
 8000256:	ea82 0000 	eor.w	r0, r2, r0
 800025a:	ea83 0101 	eor.w	r1, r3, r1
 800025e:	ea80 0202 	eor.w	r2, r0, r2
 8000262:	ea81 0303 	eor.w	r3, r1, r3
 8000266:	2d36      	cmp	r5, #54	; 0x36
 8000268:	bf88      	it	hi
 800026a:	bd30      	pophi	{r4, r5, pc}
 800026c:	f011 4f00 	tst.w	r1, #2147483648	; 0x80000000
 8000270:	ea4f 3101 	mov.w	r1, r1, lsl #12
 8000274:	f44f 1c80 	mov.w	ip, #1048576	; 0x100000
 8000278:	ea4c 3111 	orr.w	r1, ip, r1, lsr #12
 800027c:	d002      	beq.n	8000284 <__adddf3+0x70>
 800027e:	4240      	negs	r0, r0
 8000280:	eb61 0141 	sbc.w	r1, r1, r1, lsl #1
 8000284:	f013 4f00 	tst.w	r3, #2147483648	; 0x80000000
 8000288:	ea4f 3303 	mov.w	r3, r3, lsl #12
 800028c:	ea4c 3313 	orr.w	r3, ip, r3, lsr #12
 8000290:	d002      	beq.n	8000298 <__adddf3+0x84>
 8000292:	4252      	negs	r2, r2
 8000294:	eb63 0343 	sbc.w	r3, r3, r3, lsl #1
 8000298:	ea94 0f05 	teq	r4, r5
 800029c:	f000 80a7 	beq.w	80003ee <__adddf3+0x1da>
 80002a0:	f1a4 0401 	sub.w	r4, r4, #1
 80002a4:	f1d5 0e20 	rsbs	lr, r5, #32
 80002a8:	db0d      	blt.n	80002c6 <__adddf3+0xb2>
 80002aa:	fa02 fc0e 	lsl.w	ip, r2, lr
 80002ae:	fa22 f205 	lsr.w	r2, r2, r5
 80002b2:	1880      	adds	r0, r0, r2
 80002b4:	f141 0100 	adc.w	r1, r1, #0
 80002b8:	fa03 f20e 	lsl.w	r2, r3, lr
 80002bc:	1880      	adds	r0, r0, r2
 80002be:	fa43 f305 	asr.w	r3, r3, r5
 80002c2:	4159      	adcs	r1, r3
 80002c4:	e00e      	b.n	80002e4 <__adddf3+0xd0>
 80002c6:	f1a5 0520 	sub.w	r5, r5, #32
 80002ca:	f10e 0e20 	add.w	lr, lr, #32
 80002ce:	2a01      	cmp	r2, #1
 80002d0:	fa03 fc0e 	lsl.w	ip, r3, lr
 80002d4:	bf28      	it	cs
 80002d6:	f04c 0c02 	orrcs.w	ip, ip, #2
 80002da:	fa43 f305 	asr.w	r3, r3, r5
 80002de:	18c0      	adds	r0, r0, r3
 80002e0:	eb51 71e3 	adcs.w	r1, r1, r3, asr #31
 80002e4:	f001 4500 	and.w	r5, r1, #2147483648	; 0x80000000
 80002e8:	d507      	bpl.n	80002fa <__adddf3+0xe6>
 80002ea:	f04f 0e00 	mov.w	lr, #0
 80002ee:	f1dc 0c00 	rsbs	ip, ip, #0
 80002f2:	eb7e 0000 	sbcs.w	r0, lr, r0
 80002f6:	eb6e 0101 	sbc.w	r1, lr, r1
 80002fa:	f5b1 1f80 	cmp.w	r1, #1048576	; 0x100000
 80002fe:	d31b      	bcc.n	8000338 <__adddf3+0x124>
 8000300:	f5b1 1f00 	cmp.w	r1, #2097152	; 0x200000
 8000304:	d30c      	bcc.n	8000320 <__adddf3+0x10c>
 8000306:	0849      	lsrs	r1, r1, #1
 8000308:	ea5f 0030 	movs.w	r0, r0, rrx
 800030c:	ea4f 0c3c 	mov.w	ip, ip, rrx
 8000310:	f104 0401 	add.w	r4, r4, #1
 8000314:	ea4f 5244 	mov.w	r2, r4, lsl #21
 8000318:	f512 0f80 	cmn.w	r2, #4194304	; 0x400000
 800031c:	f080 809a 	bcs.w	8000454 <__adddf3+0x240>
 8000320:	f1bc 4f00 	cmp.w	ip, #2147483648	; 0x80000000
 8000324:	bf08      	it	eq
 8000326:	ea5f 0c50 	movseq.w	ip, r0, lsr #1
 800032a:	f150 0000 	adcs.w	r0, r0, #0
 800032e:	eb41 5104 	adc.w	r1, r1, r4, lsl #20
 8000332:	ea41 0105 	orr.w	r1, r1, r5
 8000336:	bd30      	pop	{r4, r5, pc}
 8000338:	ea5f 0c4c 	movs.w	ip, ip, lsl #1
 800033c:	4140      	adcs	r0, r0
 800033e:	eb41 0101 	adc.w	r1, r1, r1
 8000342:	f411 1f80 	tst.w	r1, #1048576	; 0x100000
 8000346:	f1a4 0401 	sub.w	r4, r4, #1
 800034a:	d1e9      	bne.n	8000320 <__adddf3+0x10c>
 800034c:	f091 0f00 	teq	r1, #0
 8000350:	bf04      	itt	eq
 8000352:	4601      	moveq	r1, r0
 8000354:	2000      	moveq	r0, #0
 8000356:	fab1 f381 	clz	r3, r1
 800035a:	bf08      	it	eq
 800035c:	3320      	addeq	r3, #32
 800035e:	f1a3 030b 	sub.w	r3, r3, #11
 8000362:	f1b3 0220 	subs.w	r2, r3, #32
 8000366:	da0c      	bge.n	8000382 <__adddf3+0x16e>
 8000368:	320c      	adds	r2, #12
 800036a:	dd08      	ble.n	800037e <__adddf3+0x16a>
 800036c:	f102 0c14 	add.w	ip, r2, #20
 8000370:	f1c2 020c 	rsb	r2, r2, #12
 8000374:	fa01 f00c 	lsl.w	r0, r1, ip
 8000378:	fa21 f102 	lsr.w	r1, r1, r2
 800037c:	e00c      	b.n	8000398 <__adddf3+0x184>
 800037e:	f102 0214 	add.w	r2, r2, #20
 8000382:	bfd8      	it	le
 8000384:	f1c2 0c20 	rsble	ip, r2, #32
 8000388:	fa01 f102 	lsl.w	r1, r1, r2
 800038c:	fa20 fc0c 	lsr.w	ip, r0, ip
 8000390:	bfdc      	itt	le
 8000392:	ea41 010c 	orrle.w	r1, r1, ip
 8000396:	4090      	lslle	r0, r2
 8000398:	1ae4      	subs	r4, r4, r3
 800039a:	bfa2      	ittt	ge
 800039c:	eb01 5104 	addge.w	r1, r1, r4, lsl #20
 80003a0:	4329      	orrge	r1, r5
 80003a2:	bd30      	popge	{r4, r5, pc}
 80003a4:	ea6f 0404 	mvn.w	r4, r4
 80003a8:	3c1f      	subs	r4, #31
 80003aa:	da1c      	bge.n	80003e6 <__adddf3+0x1d2>
 80003ac:	340c      	adds	r4, #12
 80003ae:	dc0e      	bgt.n	80003ce <__adddf3+0x1ba>
 80003b0:	f104 0414 	add.w	r4, r4, #20
 80003b4:	f1c4 0220 	rsb	r2, r4, #32
 80003b8:	fa20 f004 	lsr.w	r0, r0, r4
 80003bc:	fa01 f302 	lsl.w	r3, r1, r2
 80003c0:	ea40 0003 	orr.w	r0, r0, r3
 80003c4:	fa21 f304 	lsr.w	r3, r1, r4
 80003c8:	ea45 0103 	orr.w	r1, r5, r3
 80003cc:	bd30      	pop	{r4, r5, pc}
 80003ce:	f1c4 040c 	rsb	r4, r4, #12
 80003d2:	f1c4 0220 	rsb	r2, r4, #32
 80003d6:	fa20 f002 	lsr.w	r0, r0, r2
 80003da:	fa01 f304 	lsl.w	r3, r1, r4
 80003de:	ea40 0003 	orr.w	r0, r0, r3
 80003e2:	4629      	mov	r1, r5
 80003e4:	bd30      	pop	{r4, r5, pc}
 80003e6:	fa21 f004 	lsr.w	r0, r1, r4
 80003ea:	4629      	mov	r1, r5
 80003ec:	bd30      	pop	{r4, r5, pc}
 80003ee:	f094 0f00 	teq	r4, #0
 80003f2:	f483 1380 	eor.w	r3, r3, #1048576	; 0x100000
 80003f6:	bf06      	itte	eq
 80003f8:	f481 1180 	eoreq.w	r1, r1, #1048576	; 0x100000
 80003fc:	3401      	addeq	r4, #1
 80003fe:	3d01      	subne	r5, #1
 8000400:	e74e      	b.n	80002a0 <__adddf3+0x8c>
 8000402:	ea7f 5c64 	mvns.w	ip, r4, asr #21
 8000406:	bf18      	it	ne
 8000408:	ea7f 5c65 	mvnsne.w	ip, r5, asr #21
 800040c:	d029      	beq.n	8000462 <__adddf3+0x24e>
 800040e:	ea94 0f05 	teq	r4, r5
 8000412:	bf08      	it	eq
 8000414:	ea90 0f02 	teqeq	r0, r2
 8000418:	d005      	beq.n	8000426 <__adddf3+0x212>
 800041a:	ea54 0c00 	orrs.w	ip, r4, r0
 800041e:	bf04      	itt	eq
 8000420:	4619      	moveq	r1, r3
 8000422:	4610      	moveq	r0, r2
 8000424:	bd30      	pop	{r4, r5, pc}
 8000426:	ea91 0f03 	teq	r1, r3
 800042a:	bf1e      	ittt	ne
 800042c:	2100      	movne	r1, #0
 800042e:	2000      	movne	r0, #0
 8000430:	bd30      	popne	{r4, r5, pc}
 8000432:	ea5f 5c54 	movs.w	ip, r4, lsr #21
 8000436:	d105      	bne.n	8000444 <__adddf3+0x230>
 8000438:	0040      	lsls	r0, r0, #1
 800043a:	4149      	adcs	r1, r1
 800043c:	bf28      	it	cs
 800043e:	f041 4100 	orrcs.w	r1, r1, #2147483648	; 0x80000000
 8000442:	bd30      	pop	{r4, r5, pc}
 8000444:	f514 0480 	adds.w	r4, r4, #4194304	; 0x400000
 8000448:	bf3c      	itt	cc
 800044a:	f501 1180 	addcc.w	r1, r1, #1048576	; 0x100000
 800044e:	bd30      	popcc	{r4, r5, pc}
 8000450:	f001 4500 	and.w	r5, r1, #2147483648	; 0x80000000
 8000454:	f045 41fe 	orr.w	r1, r5, #2130706432	; 0x7f000000
 8000458:	f441 0170 	orr.w	r1, r1, #15728640	; 0xf00000
 800045c:	f04f 0000 	mov.w	r0, #0
 8000460:	bd30      	pop	{r4, r5, pc}
 8000462:	ea7f 5c64 	mvns.w	ip, r4, asr #21
 8000466:	bf1a      	itte	ne
 8000468:	4619      	movne	r1, r3
 800046a:	4610      	movne	r0, r2
 800046c:	ea7f 5c65 	mvnseq.w	ip, r5, asr #21
 8000470:	bf1c      	itt	ne
 8000472:	460b      	movne	r3, r1
 8000474:	4602      	movne	r2, r0
 8000476:	ea50 3401 	orrs.w	r4, r0, r1, lsl #12
 800047a:	bf06      	itte	eq
 800047c:	ea52 3503 	orrseq.w	r5, r2, r3, lsl #12
 8000480:	ea91 0f03 	teqeq	r1, r3
 8000484:	f441 2100 	orrne.w	r1, r1, #524288	; 0x80000
 8000488:	bd30      	pop	{r4, r5, pc}
 800048a:	bf00      	nop

0800048c <__aeabi_ui2d>:
 800048c:	f090 0f00 	teq	r0, #0
 8000490:	bf04      	itt	eq
 8000492:	2100      	moveq	r1, #0
 8000494:	4770      	bxeq	lr
 8000496:	b530      	push	{r4, r5, lr}
 8000498:	f44f 6480 	mov.w	r4, #1024	; 0x400
 800049c:	f104 0432 	add.w	r4, r4, #50	; 0x32
 80004a0:	f04f 0500 	mov.w	r5, #0
 80004a4:	f04f 0100 	mov.w	r1, #0
 80004a8:	e750      	b.n	800034c <__adddf3+0x138>
 80004aa:	bf00      	nop

080004ac <__aeabi_i2d>:
 80004ac:	f090 0f00 	teq	r0, #0
 80004b0:	bf04      	itt	eq
 80004b2:	2100      	moveq	r1, #0
 80004b4:	4770      	bxeq	lr
 80004b6:	b530      	push	{r4, r5, lr}
 80004b8:	f44f 6480 	mov.w	r4, #1024	; 0x400
 80004bc:	f104 0432 	add.w	r4, r4, #50	; 0x32
 80004c0:	f010 4500 	ands.w	r5, r0, #2147483648	; 0x80000000
 80004c4:	bf48      	it	mi
 80004c6:	4240      	negmi	r0, r0
 80004c8:	f04f 0100 	mov.w	r1, #0
 80004cc:	e73e      	b.n	800034c <__adddf3+0x138>
 80004ce:	bf00      	nop

080004d0 <__aeabi_f2d>:
 80004d0:	0042      	lsls	r2, r0, #1
 80004d2:	ea4f 01e2 	mov.w	r1, r2, asr #3
 80004d6:	ea4f 0131 	mov.w	r1, r1, rrx
 80004da:	ea4f 7002 	mov.w	r0, r2, lsl #28
 80004de:	bf1f      	itttt	ne
 80004e0:	f012 437f 	andsne.w	r3, r2, #4278190080	; 0xff000000
 80004e4:	f093 4f7f 	teqne	r3, #4278190080	; 0xff000000
 80004e8:	f081 5160 	eorne.w	r1, r1, #939524096	; 0x38000000
 80004ec:	4770      	bxne	lr
 80004ee:	f092 0f00 	teq	r2, #0
 80004f2:	bf14      	ite	ne
 80004f4:	f093 4f7f 	teqne	r3, #4278190080	; 0xff000000
 80004f8:	4770      	bxeq	lr
 80004fa:	b530      	push	{r4, r5, lr}
 80004fc:	f44f 7460 	mov.w	r4, #896	; 0x380
 8000500:	f001 4500 	and.w	r5, r1, #2147483648	; 0x80000000
 8000504:	f021 4100 	bic.w	r1, r1, #2147483648	; 0x80000000
 8000508:	e720      	b.n	800034c <__adddf3+0x138>
 800050a:	bf00      	nop

0800050c <__aeabi_ul2d>:
 800050c:	ea50 0201 	orrs.w	r2, r0, r1
 8000510:	bf08      	it	eq
 8000512:	4770      	bxeq	lr
 8000514:	b530      	push	{r4, r5, lr}
 8000516:	f04f 0500 	mov.w	r5, #0
 800051a:	e00a      	b.n	8000532 <__aeabi_l2d+0x16>

0800051c <__aeabi_l2d>:
 800051c:	ea50 0201 	orrs.w	r2, r0, r1
 8000520:	bf08      	it	eq
 8000522:	4770      	bxeq	lr
 8000524:	b530      	push	{r4, r5, lr}
 8000526:	f011 4500 	ands.w	r5, r1, #2147483648	; 0x80000000
 800052a:	d502      	bpl.n	8000532 <__aeabi_l2d+0x16>
 800052c:	4240      	negs	r0, r0
 800052e:	eb61 0141 	sbc.w	r1, r1, r1, lsl #1
 8000532:	f44f 6480 	mov.w	r4, #1024	; 0x400
 8000536:	f104 0432 	add.w	r4, r4, #50	; 0x32
 800053a:	ea5f 5c91 	movs.w	ip, r1, lsr #22
 800053e:	f43f aedc 	beq.w	80002fa <__adddf3+0xe6>
 8000542:	f04f 0203 	mov.w	r2, #3
 8000546:	ea5f 0cdc 	movs.w	ip, ip, lsr #3
 800054a:	bf18      	it	ne
 800054c:	3203      	addne	r2, #3
 800054e:	ea5f 0cdc 	movs.w	ip, ip, lsr #3
 8000552:	bf18      	it	ne
 8000554:	3203      	addne	r2, #3
 8000556:	eb02 02dc 	add.w	r2, r2, ip, lsr #3
 800055a:	f1c2 0320 	rsb	r3, r2, #32
 800055e:	fa00 fc03 	lsl.w	ip, r0, r3
 8000562:	fa20 f002 	lsr.w	r0, r0, r2
 8000566:	fa01 fe03 	lsl.w	lr, r1, r3
 800056a:	ea40 000e 	orr.w	r0, r0, lr
 800056e:	fa21 f102 	lsr.w	r1, r1, r2
 8000572:	4414      	add	r4, r2
 8000574:	e6c1      	b.n	80002fa <__adddf3+0xe6>
 8000576:	bf00      	nop

08000578 <__aeabi_dmul>:
 8000578:	b570      	push	{r4, r5, r6, lr}
 800057a:	f04f 0cff 	mov.w	ip, #255	; 0xff
 800057e:	f44c 6ce0 	orr.w	ip, ip, #1792	; 0x700
 8000582:	ea1c 5411 	ands.w	r4, ip, r1, lsr #20
 8000586:	bf1d      	ittte	ne
 8000588:	ea1c 5513 	andsne.w	r5, ip, r3, lsr #20
 800058c:	ea94 0f0c 	teqne	r4, ip
 8000590:	ea95 0f0c 	teqne	r5, ip
 8000594:	f000 f8de 	bleq	8000754 <__aeabi_dmul+0x1dc>
 8000598:	442c      	add	r4, r5
 800059a:	ea81 0603 	eor.w	r6, r1, r3
 800059e:	ea21 514c 	bic.w	r1, r1, ip, lsl #21
 80005a2:	ea23 534c 	bic.w	r3, r3, ip, lsl #21
 80005a6:	ea50 3501 	orrs.w	r5, r0, r1, lsl #12
 80005aa:	bf18      	it	ne
 80005ac:	ea52 3503 	orrsne.w	r5, r2, r3, lsl #12
 80005b0:	f441 1180 	orr.w	r1, r1, #1048576	; 0x100000
 80005b4:	f443 1380 	orr.w	r3, r3, #1048576	; 0x100000
 80005b8:	d038      	beq.n	800062c <__aeabi_dmul+0xb4>
 80005ba:	fba0 ce02 	umull	ip, lr, r0, r2
 80005be:	f04f 0500 	mov.w	r5, #0
 80005c2:	fbe1 e502 	umlal	lr, r5, r1, r2
 80005c6:	f006 4200 	and.w	r2, r6, #2147483648	; 0x80000000
 80005ca:	fbe0 e503 	umlal	lr, r5, r0, r3
 80005ce:	f04f 0600 	mov.w	r6, #0
 80005d2:	fbe1 5603 	umlal	r5, r6, r1, r3
 80005d6:	f09c 0f00 	teq	ip, #0
 80005da:	bf18      	it	ne
 80005dc:	f04e 0e01 	orrne.w	lr, lr, #1
 80005e0:	f1a4 04ff 	sub.w	r4, r4, #255	; 0xff
 80005e4:	f5b6 7f00 	cmp.w	r6, #512	; 0x200
 80005e8:	f564 7440 	sbc.w	r4, r4, #768	; 0x300
 80005ec:	d204      	bcs.n	80005f8 <__aeabi_dmul+0x80>
 80005ee:	ea5f 0e4e 	movs.w	lr, lr, lsl #1
 80005f2:	416d      	adcs	r5, r5
 80005f4:	eb46 0606 	adc.w	r6, r6, r6
 80005f8:	ea42 21c6 	orr.w	r1, r2, r6, lsl #11
 80005fc:	ea41 5155 	orr.w	r1, r1, r5, lsr #21
 8000600:	ea4f 20c5 	mov.w	r0, r5, lsl #11
 8000604:	ea40 505e 	orr.w	r0, r0, lr, lsr #21
 8000608:	ea4f 2ece 	mov.w	lr, lr, lsl #11
 800060c:	f1b4 0cfd 	subs.w	ip, r4, #253	; 0xfd
 8000610:	bf88      	it	hi
 8000612:	f5bc 6fe0 	cmphi.w	ip, #1792	; 0x700
 8000616:	d81e      	bhi.n	8000656 <__aeabi_dmul+0xde>
 8000618:	f1be 4f00 	cmp.w	lr, #2147483648	; 0x80000000
 800061c:	bf08      	it	eq
 800061e:	ea5f 0e50 	movseq.w	lr, r0, lsr #1
 8000622:	f150 0000 	adcs.w	r0, r0, #0
 8000626:	eb41 5104 	adc.w	r1, r1, r4, lsl #20
 800062a:	bd70      	pop	{r4, r5, r6, pc}
 800062c:	f006 4600 	and.w	r6, r6, #2147483648	; 0x80000000
 8000630:	ea46 0101 	orr.w	r1, r6, r1
 8000634:	ea40 0002 	orr.w	r0, r0, r2
 8000638:	ea81 0103 	eor.w	r1, r1, r3
 800063c:	ebb4 045c 	subs.w	r4, r4, ip, lsr #1
 8000640:	bfc2      	ittt	gt
 8000642:	ebd4 050c 	rsbsgt	r5, r4, ip
 8000646:	ea41 5104 	orrgt.w	r1, r1, r4, lsl #20
 800064a:	bd70      	popgt	{r4, r5, r6, pc}
 800064c:	f441 1180 	orr.w	r1, r1, #1048576	; 0x100000
 8000650:	f04f 0e00 	mov.w	lr, #0
 8000654:	3c01      	subs	r4, #1
 8000656:	f300 80ab 	bgt.w	80007b0 <__aeabi_dmul+0x238>
 800065a:	f114 0f36 	cmn.w	r4, #54	; 0x36
 800065e:	bfde      	ittt	le
 8000660:	2000      	movle	r0, #0
 8000662:	f001 4100 	andle.w	r1, r1, #2147483648	; 0x80000000
 8000666:	bd70      	pople	{r4, r5, r6, pc}
 8000668:	f1c4 0400 	rsb	r4, r4, #0
 800066c:	3c20      	subs	r4, #32
 800066e:	da35      	bge.n	80006dc <__aeabi_dmul+0x164>
 8000670:	340c      	adds	r4, #12
 8000672:	dc1b      	bgt.n	80006ac <__aeabi_dmul+0x134>
 8000674:	f104 0414 	add.w	r4, r4, #20
 8000678:	f1c4 0520 	rsb	r5, r4, #32
 800067c:	fa00 f305 	lsl.w	r3, r0, r5
 8000680:	fa20 f004 	lsr.w	r0, r0, r4
 8000684:	fa01 f205 	lsl.w	r2, r1, r5
 8000688:	ea40 0002 	orr.w	r0, r0, r2
 800068c:	f001 4200 	and.w	r2, r1, #2147483648	; 0x80000000
 8000690:	f021 4100 	bic.w	r1, r1, #2147483648	; 0x80000000
 8000694:	eb10 70d3 	adds.w	r0, r0, r3, lsr #31
 8000698:	fa21 f604 	lsr.w	r6, r1, r4
 800069c:	eb42 0106 	adc.w	r1, r2, r6
 80006a0:	ea5e 0e43 	orrs.w	lr, lr, r3, lsl #1
 80006a4:	bf08      	it	eq
 80006a6:	ea20 70d3 	biceq.w	r0, r0, r3, lsr #31
 80006aa:	bd70      	pop	{r4, r5, r6, pc}
 80006ac:	f1c4 040c 	rsb	r4, r4, #12
 80006b0:	f1c4 0520 	rsb	r5, r4, #32
 80006b4:	fa00 f304 	lsl.w	r3, r0, r4
 80006b8:	fa20 f005 	lsr.w	r0, r0, r5
 80006bc:	fa01 f204 	lsl.w	r2, r1, r4
 80006c0:	ea40 0002 	orr.w	r0, r0, r2
 80006c4:	f001 4100 	and.w	r1, r1, #2147483648	; 0x80000000
 80006c8:	eb10 70d3 	adds.w	r0, r0, r3, lsr #31
 80006cc:	f141 0100 	adc.w	r1, r1, #0
 80006d0:	ea5e 0e43 	orrs.w	lr, lr, r3, lsl #1
 80006d4:	bf08      	it	eq
 80006d6:	ea20 70d3 	biceq.w	r0, r0, r3, lsr #31
 80006da:	bd70      	pop	{r4, r5, r6, pc}
 80006dc:	f1c4 0520 	rsb	r5, r4, #32
 80006e0:	fa00 f205 	lsl.w	r2, r0, r5
 80006e4:	ea4e 0e02 	orr.w	lr, lr, r2
 80006e8:	fa20 f304 	lsr.w	r3, r0, r4
 80006ec:	fa01 f205 	lsl.w	r2, r1, r5
 80006f0:	ea43 0302 	orr.w	r3, r3, r2
 80006f4:	fa21 f004 	lsr.w	r0, r1, r4
 80006f8:	f001 4100 	and.w	r1, r1, #2147483648	; 0x80000000
 80006fc:	fa21 f204 	lsr.w	r2, r1, r4
 8000700:	ea20 0002 	bic.w	r0, r0, r2
 8000704:	eb00 70d3 	add.w	r0, r0, r3, lsr #31
 8000708:	ea5e 0e43 	orrs.w	lr, lr, r3, lsl #1
 800070c:	bf08      	it	eq
 800070e:	ea20 70d3 	biceq.w	r0, r0, r3, lsr #31
 8000712:	bd70      	pop	{r4, r5, r6, pc}
 8000714:	f094 0f00 	teq	r4, #0
 8000718:	d10f      	bne.n	800073a <__aeabi_dmul+0x1c2>
 800071a:	f001 4600 	and.w	r6, r1, #2147483648	; 0x80000000
 800071e:	0040      	lsls	r0, r0, #1
 8000720:	eb41 0101 	adc.w	r1, r1, r1
 8000724:	f411 1f80 	tst.w	r1, #1048576	; 0x100000
 8000728:	bf08      	it	eq
 800072a:	3c01      	subeq	r4, #1
 800072c:	d0f7      	beq.n	800071e <__aeabi_dmul+0x1a6>
 800072e:	ea41 0106 	orr.w	r1, r1, r6
 8000732:	f095 0f00 	teq	r5, #0
 8000736:	bf18      	it	ne
 8000738:	4770      	bxne	lr
 800073a:	f003 4600 	and.w	r6, r3, #2147483648	; 0x80000000
 800073e:	0052      	lsls	r2, r2, #1
 8000740:	eb43 0303 	adc.w	r3, r3, r3
 8000744:	f413 1f80 	tst.w	r3, #1048576	; 0x100000
 8000748:	bf08      	it	eq
 800074a:	3d01      	subeq	r5, #1
 800074c:	d0f7      	beq.n	800073e <__aeabi_dmul+0x1c6>
 800074e:	ea43 0306 	orr.w	r3, r3, r6
 8000752:	4770      	bx	lr
 8000754:	ea94 0f0c 	teq	r4, ip
 8000758:	ea0c 5513 	and.w	r5, ip, r3, lsr #20
 800075c:	bf18      	it	ne
 800075e:	ea95 0f0c 	teqne	r5, ip
 8000762:	d00c      	beq.n	800077e <__aeabi_dmul+0x206>
 8000764:	ea50 0641 	orrs.w	r6, r0, r1, lsl #1
 8000768:	bf18      	it	ne
 800076a:	ea52 0643 	orrsne.w	r6, r2, r3, lsl #1
 800076e:	d1d1      	bne.n	8000714 <__aeabi_dmul+0x19c>
 8000770:	ea81 0103 	eor.w	r1, r1, r3
 8000774:	f001 4100 	and.w	r1, r1, #2147483648	; 0x80000000
 8000778:	f04f 0000 	mov.w	r0, #0
 800077c:	bd70      	pop	{r4, r5, r6, pc}
 800077e:	ea50 0641 	orrs.w	r6, r0, r1, lsl #1
 8000782:	bf06      	itte	eq
 8000784:	4610      	moveq	r0, r2
 8000786:	4619      	moveq	r1, r3
 8000788:	ea52 0643 	orrsne.w	r6, r2, r3, lsl #1
 800078c:	d019      	beq.n	80007c2 <__aeabi_dmul+0x24a>
 800078e:	ea94 0f0c 	teq	r4, ip
 8000792:	d102      	bne.n	800079a <__aeabi_dmul+0x222>
 8000794:	ea50 3601 	orrs.w	r6, r0, r1, lsl #12
 8000798:	d113      	bne.n	80007c2 <__aeabi_dmul+0x24a>
 800079a:	ea95 0f0c 	teq	r5, ip
 800079e:	d105      	bne.n	80007ac <__aeabi_dmul+0x234>
 80007a0:	ea52 3603 	orrs.w	r6, r2, r3, lsl #12
 80007a4:	bf1c      	itt	ne
 80007a6:	4610      	movne	r0, r2
 80007a8:	4619      	movne	r1, r3
 80007aa:	d10a      	bne.n	80007c2 <__aeabi_dmul+0x24a>
 80007ac:	ea81 0103 	eor.w	r1, r1, r3
 80007b0:	f001 4100 	and.w	r1, r1, #2147483648	; 0x80000000
 80007b4:	f041 41fe 	orr.w	r1, r1, #2130706432	; 0x7f000000
 80007b8:	f441 0170 	orr.w	r1, r1, #15728640	; 0xf00000
 80007bc:	f04f 0000 	mov.w	r0, #0
 80007c0:	bd70      	pop	{r4, r5, r6, pc}
 80007c2:	f041 41fe 	orr.w	r1, r1, #2130706432	; 0x7f000000
 80007c6:	f441 0178 	orr.w	r1, r1, #16252928	; 0xf80000
 80007ca:	bd70      	pop	{r4, r5, r6, pc}

080007cc <__aeabi_ddiv>:
 80007cc:	b570      	push	{r4, r5, r6, lr}
 80007ce:	f04f 0cff 	mov.w	ip, #255	; 0xff
 80007d2:	f44c 6ce0 	orr.w	ip, ip, #1792	; 0x700
 80007d6:	ea1c 5411 	ands.w	r4, ip, r1, lsr #20
 80007da:	bf1d      	ittte	ne
 80007dc:	ea1c 5513 	andsne.w	r5, ip, r3, lsr #20
 80007e0:	ea94 0f0c 	teqne	r4, ip
 80007e4:	ea95 0f0c 	teqne	r5, ip
 80007e8:	f000 f8a7 	bleq	800093a <__aeabi_ddiv+0x16e>
 80007ec:	eba4 0405 	sub.w	r4, r4, r5
 80007f0:	ea81 0e03 	eor.w	lr, r1, r3
 80007f4:	ea52 3503 	orrs.w	r5, r2, r3, lsl #12
 80007f8:	ea4f 3101 	mov.w	r1, r1, lsl #12
 80007fc:	f000 8088 	beq.w	8000910 <__aeabi_ddiv+0x144>
 8000800:	ea4f 3303 	mov.w	r3, r3, lsl #12
 8000804:	f04f 5580 	mov.w	r5, #268435456	; 0x10000000
 8000808:	ea45 1313 	orr.w	r3, r5, r3, lsr #4
 800080c:	ea43 6312 	orr.w	r3, r3, r2, lsr #24
 8000810:	ea4f 2202 	mov.w	r2, r2, lsl #8
 8000814:	ea45 1511 	orr.w	r5, r5, r1, lsr #4
 8000818:	ea45 6510 	orr.w	r5, r5, r0, lsr #24
 800081c:	ea4f 2600 	mov.w	r6, r0, lsl #8
 8000820:	f00e 4100 	and.w	r1, lr, #2147483648	; 0x80000000
 8000824:	429d      	cmp	r5, r3
 8000826:	bf08      	it	eq
 8000828:	4296      	cmpeq	r6, r2
 800082a:	f144 04fd 	adc.w	r4, r4, #253	; 0xfd
 800082e:	f504 7440 	add.w	r4, r4, #768	; 0x300
 8000832:	d202      	bcs.n	800083a <__aeabi_ddiv+0x6e>
 8000834:	085b      	lsrs	r3, r3, #1
 8000836:	ea4f 0232 	mov.w	r2, r2, rrx
 800083a:	1ab6      	subs	r6, r6, r2
 800083c:	eb65 0503 	sbc.w	r5, r5, r3
 8000840:	085b      	lsrs	r3, r3, #1
 8000842:	ea4f 0232 	mov.w	r2, r2, rrx
 8000846:	f44f 1080 	mov.w	r0, #1048576	; 0x100000
 800084a:	f44f 2c00 	mov.w	ip, #524288	; 0x80000
 800084e:	ebb6 0e02 	subs.w	lr, r6, r2
 8000852:	eb75 0e03 	sbcs.w	lr, r5, r3
 8000856:	bf22      	ittt	cs
 8000858:	1ab6      	subcs	r6, r6, r2
 800085a:	4675      	movcs	r5, lr
 800085c:	ea40 000c 	orrcs.w	r0, r0, ip
 8000860:	085b      	lsrs	r3, r3, #1
 8000862:	ea4f 0232 	mov.w	r2, r2, rrx
 8000866:	ebb6 0e02 	subs.w	lr, r6, r2
 800086a:	eb75 0e03 	sbcs.w	lr, r5, r3
 800086e:	bf22      	ittt	cs
 8000870:	1ab6      	subcs	r6, r6, r2
 8000872:	4675      	movcs	r5, lr
 8000874:	ea40 005c 	orrcs.w	r0, r0, ip, lsr #1
 8000878:	085b      	lsrs	r3, r3, #1
 800087a:	ea4f 0232 	mov.w	r2, r2, rrx
 800087e:	ebb6 0e02 	subs.w	lr, r6, r2
 8000882:	eb75 0e03 	sbcs.w	lr, r5, r3
 8000886:	bf22      	ittt	cs
 8000888:	1ab6      	subcs	r6, r6, r2
 800088a:	4675      	movcs	r5, lr
 800088c:	ea40 009c 	orrcs.w	r0, r0, ip, lsr #2
 8000890:	085b      	lsrs	r3, r3, #1
 8000892:	ea4f 0232 	mov.w	r2, r2, rrx
 8000896:	ebb6 0e02 	subs.w	lr, r6, r2
 800089a:	eb75 0e03 	sbcs.w	lr, r5, r3
 800089e:	bf22      	ittt	cs
 80008a0:	1ab6      	subcs	r6, r6, r2
 80008a2:	4675      	movcs	r5, lr
 80008a4:	ea40 00dc 	orrcs.w	r0, r0, ip, lsr #3
 80008a8:	ea55 0e06 	orrs.w	lr, r5, r6
 80008ac:	d018      	beq.n	80008e0 <__aeabi_ddiv+0x114>
 80008ae:	ea4f 1505 	mov.w	r5, r5, lsl #4
 80008b2:	ea45 7516 	orr.w	r5, r5, r6, lsr #28
 80008b6:	ea4f 1606 	mov.w	r6, r6, lsl #4
 80008ba:	ea4f 03c3 	mov.w	r3, r3, lsl #3
 80008be:	ea43 7352 	orr.w	r3, r3, r2, lsr #29
 80008c2:	ea4f 02c2 	mov.w	r2, r2, lsl #3
 80008c6:	ea5f 1c1c 	movs.w	ip, ip, lsr #4
 80008ca:	d1c0      	bne.n	800084e <__aeabi_ddiv+0x82>
 80008cc:	f411 1f80 	tst.w	r1, #1048576	; 0x100000
 80008d0:	d10b      	bne.n	80008ea <__aeabi_ddiv+0x11e>
 80008d2:	ea41 0100 	orr.w	r1, r1, r0
 80008d6:	f04f 0000 	mov.w	r0, #0
 80008da:	f04f 4c00 	mov.w	ip, #2147483648	; 0x80000000
 80008de:	e7b6      	b.n	800084e <__aeabi_ddiv+0x82>
 80008e0:	f411 1f80 	tst.w	r1, #1048576	; 0x100000
 80008e4:	bf04      	itt	eq
 80008e6:	4301      	orreq	r1, r0
 80008e8:	2000      	moveq	r0, #0
 80008ea:	f1b4 0cfd 	subs.w	ip, r4, #253	; 0xfd
 80008ee:	bf88      	it	hi
 80008f0:	f5bc 6fe0 	cmphi.w	ip, #1792	; 0x700
 80008f4:	f63f aeaf 	bhi.w	8000656 <__aeabi_dmul+0xde>
 80008f8:	ebb5 0c03 	subs.w	ip, r5, r3
 80008fc:	bf04      	itt	eq
 80008fe:	ebb6 0c02 	subseq.w	ip, r6, r2
 8000902:	ea5f 0c50 	movseq.w	ip, r0, lsr #1
 8000906:	f150 0000 	adcs.w	r0, r0, #0
 800090a:	eb41 5104 	adc.w	r1, r1, r4, lsl #20
 800090e:	bd70      	pop	{r4, r5, r6, pc}
 8000910:	f00e 4e00 	and.w	lr, lr, #2147483648	; 0x80000000
 8000914:	ea4e 3111 	orr.w	r1, lr, r1, lsr #12
 8000918:	eb14 045c 	adds.w	r4, r4, ip, lsr #1
 800091c:	bfc2      	ittt	gt
 800091e:	ebd4 050c 	rsbsgt	r5, r4, ip
 8000922:	ea41 5104 	orrgt.w	r1, r1, r4, lsl #20
 8000926:	bd70      	popgt	{r4, r5, r6, pc}
 8000928:	f441 1180 	orr.w	r1, r1, #1048576	; 0x100000
 800092c:	f04f 0e00 	mov.w	lr, #0
 8000930:	3c01      	subs	r4, #1
 8000932:	e690      	b.n	8000656 <__aeabi_dmul+0xde>
 8000934:	ea45 0e06 	orr.w	lr, r5, r6
 8000938:	e68d      	b.n	8000656 <__aeabi_dmul+0xde>
 800093a:	ea0c 5513 	and.w	r5, ip, r3, lsr #20
 800093e:	ea94 0f0c 	teq	r4, ip
 8000942:	bf08      	it	eq
 8000944:	ea95 0f0c 	teqeq	r5, ip
 8000948:	f43f af3b 	beq.w	80007c2 <__aeabi_dmul+0x24a>
 800094c:	ea94 0f0c 	teq	r4, ip
 8000950:	d10a      	bne.n	8000968 <__aeabi_ddiv+0x19c>
 8000952:	ea50 3401 	orrs.w	r4, r0, r1, lsl #12
 8000956:	f47f af34 	bne.w	80007c2 <__aeabi_dmul+0x24a>
 800095a:	ea95 0f0c 	teq	r5, ip
 800095e:	f47f af25 	bne.w	80007ac <__aeabi_dmul+0x234>
 8000962:	4610      	mov	r0, r2
 8000964:	4619      	mov	r1, r3
 8000966:	e72c      	b.n	80007c2 <__aeabi_dmul+0x24a>
 8000968:	ea95 0f0c 	teq	r5, ip
 800096c:	d106      	bne.n	800097c <__aeabi_ddiv+0x1b0>
 800096e:	ea52 3503 	orrs.w	r5, r2, r3, lsl #12
 8000972:	f43f aefd 	beq.w	8000770 <__aeabi_dmul+0x1f8>
 8000976:	4610      	mov	r0, r2
 8000978:	4619      	mov	r1, r3
 800097a:	e722      	b.n	80007c2 <__aeabi_dmul+0x24a>
 800097c:	ea50 0641 	orrs.w	r6, r0, r1, lsl #1
 8000980:	bf18      	it	ne
 8000982:	ea52 0643 	orrsne.w	r6, r2, r3, lsl #1
 8000986:	f47f aec5 	bne.w	8000714 <__aeabi_dmul+0x19c>
 800098a:	ea50 0441 	orrs.w	r4, r0, r1, lsl #1
 800098e:	f47f af0d 	bne.w	80007ac <__aeabi_dmul+0x234>
 8000992:	ea52 0543 	orrs.w	r5, r2, r3, lsl #1
 8000996:	f47f aeeb 	bne.w	8000770 <__aeabi_dmul+0x1f8>
 800099a:	e712      	b.n	80007c2 <__aeabi_dmul+0x24a>

0800099c <__aeabi_d2uiz>:
 800099c:	004a      	lsls	r2, r1, #1
 800099e:	d211      	bcs.n	80009c4 <__aeabi_d2uiz+0x28>
 80009a0:	f512 1200 	adds.w	r2, r2, #2097152	; 0x200000
 80009a4:	d211      	bcs.n	80009ca <__aeabi_d2uiz+0x2e>
 80009a6:	d50d      	bpl.n	80009c4 <__aeabi_d2uiz+0x28>
 80009a8:	f46f 7378 	mvn.w	r3, #992	; 0x3e0
 80009ac:	ebb3 5262 	subs.w	r2, r3, r2, asr #21
 80009b0:	d40e      	bmi.n	80009d0 <__aeabi_d2uiz+0x34>
 80009b2:	ea4f 23c1 	mov.w	r3, r1, lsl #11
 80009b6:	f043 4300 	orr.w	r3, r3, #2147483648	; 0x80000000
 80009ba:	ea43 5350 	orr.w	r3, r3, r0, lsr #21
 80009be:	fa23 f002 	lsr.w	r0, r3, r2
 80009c2:	4770      	bx	lr
 80009c4:	f04f 0000 	mov.w	r0, #0
 80009c8:	4770      	bx	lr
 80009ca:	ea50 3001 	orrs.w	r0, r0, r1, lsl #12
 80009ce:	d102      	bne.n	80009d6 <__aeabi_d2uiz+0x3a>
 80009d0:	f04f 30ff 	mov.w	r0, #4294967295
 80009d4:	4770      	bx	lr
 80009d6:	f04f 0000 	mov.w	r0, #0
 80009da:	4770      	bx	lr

080009dc <__aeabi_uldivmod>:
 80009dc:	b953      	cbnz	r3, 80009f4 <__aeabi_uldivmod+0x18>
 80009de:	b94a      	cbnz	r2, 80009f4 <__aeabi_uldivmod+0x18>
 80009e0:	2900      	cmp	r1, #0
 80009e2:	bf08      	it	eq
 80009e4:	2800      	cmpeq	r0, #0
 80009e6:	bf1c      	itt	ne
 80009e8:	f04f 31ff 	movne.w	r1, #4294967295
 80009ec:	f04f 30ff 	movne.w	r0, #4294967295
 80009f0:	f000 b97a 	b.w	8000ce8 <__aeabi_idiv0>
 80009f4:	f1ad 0c08 	sub.w	ip, sp, #8
 80009f8:	e96d ce04 	strd	ip, lr, [sp, #-16]!
 80009fc:	f000 f806 	bl	8000a0c <__udivmoddi4>
 8000a00:	f8dd e004 	ldr.w	lr, [sp, #4]
 8000a04:	e9dd 2302 	ldrd	r2, r3, [sp, #8]
 8000a08:	b004      	add	sp, #16
 8000a0a:	4770      	bx	lr

08000a0c <__udivmoddi4>:
 8000a0c:	e92d 47f0 	stmdb	sp!, {r4, r5, r6, r7, r8, r9, sl, lr}
 8000a10:	468c      	mov	ip, r1
 8000a12:	460d      	mov	r5, r1
 8000a14:	4604      	mov	r4, r0
 8000a16:	9e08      	ldr	r6, [sp, #32]
 8000a18:	2b00      	cmp	r3, #0
 8000a1a:	d151      	bne.n	8000ac0 <__udivmoddi4+0xb4>
 8000a1c:	428a      	cmp	r2, r1
 8000a1e:	4617      	mov	r7, r2
 8000a20:	d96d      	bls.n	8000afe <__udivmoddi4+0xf2>
 8000a22:	fab2 fe82 	clz	lr, r2
 8000a26:	f1be 0f00 	cmp.w	lr, #0
 8000a2a:	d00b      	beq.n	8000a44 <__udivmoddi4+0x38>
 8000a2c:	f1ce 0c20 	rsb	ip, lr, #32
 8000a30:	fa01 f50e 	lsl.w	r5, r1, lr
 8000a34:	fa20 fc0c 	lsr.w	ip, r0, ip
 8000a38:	fa02 f70e 	lsl.w	r7, r2, lr
 8000a3c:	ea4c 0c05 	orr.w	ip, ip, r5
 8000a40:	fa00 f40e 	lsl.w	r4, r0, lr
 8000a44:	ea4f 4a17 	mov.w	sl, r7, lsr #16
 8000a48:	0c25      	lsrs	r5, r4, #16
 8000a4a:	fbbc f8fa 	udiv	r8, ip, sl
 8000a4e:	fa1f f987 	uxth.w	r9, r7
 8000a52:	fb0a cc18 	mls	ip, sl, r8, ip
 8000a56:	ea45 450c 	orr.w	r5, r5, ip, lsl #16
 8000a5a:	fb08 f309 	mul.w	r3, r8, r9
 8000a5e:	42ab      	cmp	r3, r5
 8000a60:	d90a      	bls.n	8000a78 <__udivmoddi4+0x6c>
 8000a62:	19ed      	adds	r5, r5, r7
 8000a64:	f108 32ff 	add.w	r2, r8, #4294967295
 8000a68:	f080 8123 	bcs.w	8000cb2 <__udivmoddi4+0x2a6>
 8000a6c:	42ab      	cmp	r3, r5
 8000a6e:	f240 8120 	bls.w	8000cb2 <__udivmoddi4+0x2a6>
 8000a72:	f1a8 0802 	sub.w	r8, r8, #2
 8000a76:	443d      	add	r5, r7
 8000a78:	1aed      	subs	r5, r5, r3
 8000a7a:	b2a4      	uxth	r4, r4
 8000a7c:	fbb5 f0fa 	udiv	r0, r5, sl
 8000a80:	fb0a 5510 	mls	r5, sl, r0, r5
 8000a84:	ea44 4405 	orr.w	r4, r4, r5, lsl #16
 8000a88:	fb00 f909 	mul.w	r9, r0, r9
 8000a8c:	45a1      	cmp	r9, r4
 8000a8e:	d909      	bls.n	8000aa4 <__udivmoddi4+0x98>
 8000a90:	19e4      	adds	r4, r4, r7
 8000a92:	f100 33ff 	add.w	r3, r0, #4294967295
 8000a96:	f080 810a 	bcs.w	8000cae <__udivmoddi4+0x2a2>
 8000a9a:	45a1      	cmp	r9, r4
 8000a9c:	f240 8107 	bls.w	8000cae <__udivmoddi4+0x2a2>
 8000aa0:	3802      	subs	r0, #2
 8000aa2:	443c      	add	r4, r7
 8000aa4:	eba4 0409 	sub.w	r4, r4, r9
 8000aa8:	ea40 4008 	orr.w	r0, r0, r8, lsl #16
 8000aac:	2100      	movs	r1, #0
 8000aae:	2e00      	cmp	r6, #0
 8000ab0:	d061      	beq.n	8000b76 <__udivmoddi4+0x16a>
 8000ab2:	fa24 f40e 	lsr.w	r4, r4, lr
 8000ab6:	2300      	movs	r3, #0
 8000ab8:	6034      	str	r4, [r6, #0]
 8000aba:	6073      	str	r3, [r6, #4]
 8000abc:	e8bd 87f0 	ldmia.w	sp!, {r4, r5, r6, r7, r8, r9, sl, pc}
 8000ac0:	428b      	cmp	r3, r1
 8000ac2:	d907      	bls.n	8000ad4 <__udivmoddi4+0xc8>
 8000ac4:	2e00      	cmp	r6, #0
 8000ac6:	d054      	beq.n	8000b72 <__udivmoddi4+0x166>
 8000ac8:	2100      	movs	r1, #0
 8000aca:	e886 0021 	stmia.w	r6, {r0, r5}
 8000ace:	4608      	mov	r0, r1
 8000ad0:	e8bd 87f0 	ldmia.w	sp!, {r4, r5, r6, r7, r8, r9, sl, pc}
 8000ad4:	fab3 f183 	clz	r1, r3
 8000ad8:	2900      	cmp	r1, #0
 8000ada:	f040 808e 	bne.w	8000bfa <__udivmoddi4+0x1ee>
 8000ade:	42ab      	cmp	r3, r5
 8000ae0:	d302      	bcc.n	8000ae8 <__udivmoddi4+0xdc>
 8000ae2:	4282      	cmp	r2, r0
 8000ae4:	f200 80fa 	bhi.w	8000cdc <__udivmoddi4+0x2d0>
 8000ae8:	1a84      	subs	r4, r0, r2
 8000aea:	eb65 0503 	sbc.w	r5, r5, r3
 8000aee:	2001      	movs	r0, #1
 8000af0:	46ac      	mov	ip, r5
 8000af2:	2e00      	cmp	r6, #0
 8000af4:	d03f      	beq.n	8000b76 <__udivmoddi4+0x16a>
 8000af6:	e886 1010 	stmia.w	r6, {r4, ip}
 8000afa:	e8bd 87f0 	ldmia.w	sp!, {r4, r5, r6, r7, r8, r9, sl, pc}
 8000afe:	b912      	cbnz	r2, 8000b06 <__udivmoddi4+0xfa>
 8000b00:	2701      	movs	r7, #1
 8000b02:	fbb7 f7f2 	udiv	r7, r7, r2
 8000b06:	fab7 fe87 	clz	lr, r7
 8000b0a:	f1be 0f00 	cmp.w	lr, #0
 8000b0e:	d134      	bne.n	8000b7a <__udivmoddi4+0x16e>
 8000b10:	1beb      	subs	r3, r5, r7
 8000b12:	0c3a      	lsrs	r2, r7, #16
 8000b14:	fa1f fc87 	uxth.w	ip, r7
 8000b18:	2101      	movs	r1, #1
 8000b1a:	fbb3 f8f2 	udiv	r8, r3, r2
 8000b1e:	0c25      	lsrs	r5, r4, #16
 8000b20:	fb02 3318 	mls	r3, r2, r8, r3
 8000b24:	ea45 4503 	orr.w	r5, r5, r3, lsl #16
 8000b28:	fb0c f308 	mul.w	r3, ip, r8
 8000b2c:	42ab      	cmp	r3, r5
 8000b2e:	d907      	bls.n	8000b40 <__udivmoddi4+0x134>
 8000b30:	19ed      	adds	r5, r5, r7
 8000b32:	f108 30ff 	add.w	r0, r8, #4294967295
 8000b36:	d202      	bcs.n	8000b3e <__udivmoddi4+0x132>
 8000b38:	42ab      	cmp	r3, r5
 8000b3a:	f200 80d1 	bhi.w	8000ce0 <__udivmoddi4+0x2d4>
 8000b3e:	4680      	mov	r8, r0
 8000b40:	1aed      	subs	r5, r5, r3
 8000b42:	b2a3      	uxth	r3, r4
 8000b44:	fbb5 f0f2 	udiv	r0, r5, r2
 8000b48:	fb02 5510 	mls	r5, r2, r0, r5
 8000b4c:	ea43 4405 	orr.w	r4, r3, r5, lsl #16
 8000b50:	fb0c fc00 	mul.w	ip, ip, r0
 8000b54:	45a4      	cmp	ip, r4
 8000b56:	d907      	bls.n	8000b68 <__udivmoddi4+0x15c>
 8000b58:	19e4      	adds	r4, r4, r7
 8000b5a:	f100 33ff 	add.w	r3, r0, #4294967295
 8000b5e:	d202      	bcs.n	8000b66 <__udivmoddi4+0x15a>
 8000b60:	45a4      	cmp	ip, r4
 8000b62:	f200 80b8 	bhi.w	8000cd6 <__udivmoddi4+0x2ca>
 8000b66:	4618      	mov	r0, r3
 8000b68:	eba4 040c 	sub.w	r4, r4, ip
 8000b6c:	ea40 4008 	orr.w	r0, r0, r8, lsl #16
 8000b70:	e79d      	b.n	8000aae <__udivmoddi4+0xa2>
 8000b72:	4631      	mov	r1, r6
 8000b74:	4630      	mov	r0, r6
 8000b76:	e8bd 87f0 	ldmia.w	sp!, {r4, r5, r6, r7, r8, r9, sl, pc}
 8000b7a:	f1ce 0420 	rsb	r4, lr, #32
 8000b7e:	fa05 f30e 	lsl.w	r3, r5, lr
 8000b82:	fa07 f70e 	lsl.w	r7, r7, lr
 8000b86:	fa20 f804 	lsr.w	r8, r0, r4
 8000b8a:	0c3a      	lsrs	r2, r7, #16
 8000b8c:	fa25 f404 	lsr.w	r4, r5, r4
 8000b90:	ea48 0803 	orr.w	r8, r8, r3
 8000b94:	fbb4 f1f2 	udiv	r1, r4, r2
 8000b98:	ea4f 4518 	mov.w	r5, r8, lsr #16
 8000b9c:	fb02 4411 	mls	r4, r2, r1, r4
 8000ba0:	fa1f fc87 	uxth.w	ip, r7
 8000ba4:	ea45 4504 	orr.w	r5, r5, r4, lsl #16
 8000ba8:	fb01 f30c 	mul.w	r3, r1, ip
 8000bac:	42ab      	cmp	r3, r5
 8000bae:	fa00 f40e 	lsl.w	r4, r0, lr
 8000bb2:	d909      	bls.n	8000bc8 <__udivmoddi4+0x1bc>
 8000bb4:	19ed      	adds	r5, r5, r7
 8000bb6:	f101 30ff 	add.w	r0, r1, #4294967295
 8000bba:	f080 808a 	bcs.w	8000cd2 <__udivmoddi4+0x2c6>
 8000bbe:	42ab      	cmp	r3, r5
 8000bc0:	f240 8087 	bls.w	8000cd2 <__udivmoddi4+0x2c6>
 8000bc4:	3902      	subs	r1, #2
 8000bc6:	443d      	add	r5, r7
 8000bc8:	1aeb      	subs	r3, r5, r3
 8000bca:	fa1f f588 	uxth.w	r5, r8
 8000bce:	fbb3 f0f2 	udiv	r0, r3, r2
 8000bd2:	fb02 3310 	mls	r3, r2, r0, r3
 8000bd6:	ea45 4503 	orr.w	r5, r5, r3, lsl #16
 8000bda:	fb00 f30c 	mul.w	r3, r0, ip
 8000bde:	42ab      	cmp	r3, r5
 8000be0:	d907      	bls.n	8000bf2 <__udivmoddi4+0x1e6>
 8000be2:	19ed      	adds	r5, r5, r7
 8000be4:	f100 38ff 	add.w	r8, r0, #4294967295
 8000be8:	d26f      	bcs.n	8000cca <__udivmoddi4+0x2be>
 8000bea:	42ab      	cmp	r3, r5
 8000bec:	d96d      	bls.n	8000cca <__udivmoddi4+0x2be>
 8000bee:	3802      	subs	r0, #2
 8000bf0:	443d      	add	r5, r7
 8000bf2:	1aeb      	subs	r3, r5, r3
 8000bf4:	ea40 4101 	orr.w	r1, r0, r1, lsl #16
 8000bf8:	e78f      	b.n	8000b1a <__udivmoddi4+0x10e>
 8000bfa:	f1c1 0720 	rsb	r7, r1, #32
 8000bfe:	fa22 f807 	lsr.w	r8, r2, r7
 8000c02:	408b      	lsls	r3, r1
 8000c04:	fa05 f401 	lsl.w	r4, r5, r1
 8000c08:	ea48 0303 	orr.w	r3, r8, r3
 8000c0c:	fa20 fe07 	lsr.w	lr, r0, r7
 8000c10:	ea4f 4c13 	mov.w	ip, r3, lsr #16
 8000c14:	40fd      	lsrs	r5, r7
 8000c16:	ea4e 0e04 	orr.w	lr, lr, r4
 8000c1a:	fbb5 f9fc 	udiv	r9, r5, ip
 8000c1e:	ea4f 441e 	mov.w	r4, lr, lsr #16
 8000c22:	fb0c 5519 	mls	r5, ip, r9, r5
 8000c26:	fa1f f883 	uxth.w	r8, r3
 8000c2a:	ea44 4505 	orr.w	r5, r4, r5, lsl #16
 8000c2e:	fb09 f408 	mul.w	r4, r9, r8
 8000c32:	42ac      	cmp	r4, r5
 8000c34:	fa02 f201 	lsl.w	r2, r2, r1
 8000c38:	fa00 fa01 	lsl.w	sl, r0, r1
 8000c3c:	d908      	bls.n	8000c50 <__udivmoddi4+0x244>
 8000c3e:	18ed      	adds	r5, r5, r3
 8000c40:	f109 30ff 	add.w	r0, r9, #4294967295
 8000c44:	d243      	bcs.n	8000cce <__udivmoddi4+0x2c2>
 8000c46:	42ac      	cmp	r4, r5
 8000c48:	d941      	bls.n	8000cce <__udivmoddi4+0x2c2>
 8000c4a:	f1a9 0902 	sub.w	r9, r9, #2
 8000c4e:	441d      	add	r5, r3
 8000c50:	1b2d      	subs	r5, r5, r4
 8000c52:	fa1f fe8e 	uxth.w	lr, lr
 8000c56:	fbb5 f0fc 	udiv	r0, r5, ip
 8000c5a:	fb0c 5510 	mls	r5, ip, r0, r5
 8000c5e:	ea4e 4405 	orr.w	r4, lr, r5, lsl #16
 8000c62:	fb00 f808 	mul.w	r8, r0, r8
 8000c66:	45a0      	cmp	r8, r4
 8000c68:	d907      	bls.n	8000c7a <__udivmoddi4+0x26e>
 8000c6a:	18e4      	adds	r4, r4, r3
 8000c6c:	f100 35ff 	add.w	r5, r0, #4294967295
 8000c70:	d229      	bcs.n	8000cc6 <__udivmoddi4+0x2ba>
 8000c72:	45a0      	cmp	r8, r4
 8000c74:	d927      	bls.n	8000cc6 <__udivmoddi4+0x2ba>
 8000c76:	3802      	subs	r0, #2
 8000c78:	441c      	add	r4, r3
 8000c7a:	ea40 4009 	orr.w	r0, r0, r9, lsl #16
 8000c7e:	eba4 0408 	sub.w	r4, r4, r8
 8000c82:	fba0 8902 	umull	r8, r9, r0, r2
 8000c86:	454c      	cmp	r4, r9
 8000c88:	46c6      	mov	lr, r8
 8000c8a:	464d      	mov	r5, r9
 8000c8c:	d315      	bcc.n	8000cba <__udivmoddi4+0x2ae>
 8000c8e:	d012      	beq.n	8000cb6 <__udivmoddi4+0x2aa>
 8000c90:	b156      	cbz	r6, 8000ca8 <__udivmoddi4+0x29c>
 8000c92:	ebba 030e 	subs.w	r3, sl, lr
 8000c96:	eb64 0405 	sbc.w	r4, r4, r5
 8000c9a:	fa04 f707 	lsl.w	r7, r4, r7
 8000c9e:	40cb      	lsrs	r3, r1
 8000ca0:	431f      	orrs	r7, r3
 8000ca2:	40cc      	lsrs	r4, r1
 8000ca4:	6037      	str	r7, [r6, #0]
 8000ca6:	6074      	str	r4, [r6, #4]
 8000ca8:	2100      	movs	r1, #0
 8000caa:	e8bd 87f0 	ldmia.w	sp!, {r4, r5, r6, r7, r8, r9, sl, pc}
 8000cae:	4618      	mov	r0, r3
 8000cb0:	e6f8      	b.n	8000aa4 <__udivmoddi4+0x98>
 8000cb2:	4690      	mov	r8, r2
 8000cb4:	e6e0      	b.n	8000a78 <__udivmoddi4+0x6c>
 8000cb6:	45c2      	cmp	sl, r8
 8000cb8:	d2ea      	bcs.n	8000c90 <__udivmoddi4+0x284>
 8000cba:	ebb8 0e02 	subs.w	lr, r8, r2
 8000cbe:	eb69 0503 	sbc.w	r5, r9, r3
 8000cc2:	3801      	subs	r0, #1
 8000cc4:	e7e4      	b.n	8000c90 <__udivmoddi4+0x284>
 8000cc6:	4628      	mov	r0, r5
 8000cc8:	e7d7      	b.n	8000c7a <__udivmoddi4+0x26e>
 8000cca:	4640      	mov	r0, r8
 8000ccc:	e791      	b.n	8000bf2 <__udivmoddi4+0x1e6>
 8000cce:	4681      	mov	r9, r0
 8000cd0:	e7be      	b.n	8000c50 <__udivmoddi4+0x244>
 8000cd2:	4601      	mov	r1, r0
 8000cd4:	e778      	b.n	8000bc8 <__udivmoddi4+0x1bc>
 8000cd6:	3802      	subs	r0, #2
 8000cd8:	443c      	add	r4, r7
 8000cda:	e745      	b.n	8000b68 <__udivmoddi4+0x15c>
 8000cdc:	4608      	mov	r0, r1
 8000cde:	e708      	b.n	8000af2 <__udivmoddi4+0xe6>
 8000ce0:	f1a8 0802 	sub.w	r8, r8, #2
 8000ce4:	443d      	add	r5, r7
 8000ce6:	e72b      	b.n	8000b40 <__udivmoddi4+0x134>

08000ce8 <__aeabi_idiv0>:
 8000ce8:	4770      	bx	lr
 8000cea:	bf00      	nop

08000cec <HAL_InitTick>:
  *       implementation  in user file.
  * @param TickPriority Tick interrupt priority.
  * @retval HAL status
  */
__weak HAL_StatusTypeDef HAL_InitTick(uint32_t TickPriority)
{
 8000cec:	b538      	push	{r3, r4, r5, lr}
  /* Configure the SysTick to have interrupt in 1ms time basis*/
  if (HAL_SYSTICK_Config(SystemCoreClock / (1000U / uwTickFreq)) > 0U)
 8000cee:	4a0e      	ldr	r2, [pc, #56]	; (8000d28 <HAL_InitTick+0x3c>)
 8000cf0:	4b0e      	ldr	r3, [pc, #56]	; (8000d2c <HAL_InitTick+0x40>)
{
 8000cf2:	4605      	mov	r5, r0
  if (HAL_SYSTICK_Config(SystemCoreClock / (1000U / uwTickFreq)) > 0U)
 8000cf4:	7818      	ldrb	r0, [r3, #0]
 8000cf6:	f44f 737a 	mov.w	r3, #1000	; 0x3e8
 8000cfa:	fbb3 f3f0 	udiv	r3, r3, r0
 8000cfe:	6810      	ldr	r0, [r2, #0]
 8000d00:	fbb0 f0f3 	udiv	r0, r0, r3
 8000d04:	f000 f8a2 	bl	8000e4c <HAL_SYSTICK_Config>
 8000d08:	4604      	mov	r4, r0
 8000d0a:	b958      	cbnz	r0, 8000d24 <HAL_InitTick+0x38>
  {
    return HAL_ERROR;
  }

  /* Configure the SysTick IRQ priority */
  if (TickPriority < (1UL << __NVIC_PRIO_BITS))
 8000d0c:	2d0f      	cmp	r5, #15
 8000d0e:	d809      	bhi.n	8000d24 <HAL_InitTick+0x38>
  {
    HAL_NVIC_SetPriority(SysTick_IRQn, TickPriority, 0U);
 8000d10:	4602      	mov	r2, r0
 8000d12:	4629      	mov	r1, r5
 8000d14:	f04f 30ff 	mov.w	r0, #4294967295
 8000d18:	f000 f84a 	bl	8000db0 <HAL_NVIC_SetPriority>
    uwTickPrio = TickPriority;
 8000d1c:	4b04      	ldr	r3, [pc, #16]	; (8000d30 <HAL_InitTick+0x44>)
 8000d1e:	4620      	mov	r0, r4
 8000d20:	601d      	str	r5, [r3, #0]
 8000d22:	bd38      	pop	{r3, r4, r5, pc}
    return HAL_ERROR;
 8000d24:	2001      	movs	r0, #1
    return HAL_ERROR;
  }

  /* Return function status */
  return HAL_OK;
}
 8000d26:	bd38      	pop	{r3, r4, r5, pc}
 8000d28:	20000024 	.word	0x20000024
 8000d2c:	20000000 	.word	0x20000000
 8000d30:	20000004 	.word	0x20000004

08000d34 <HAL_Init>:
{
 8000d34:	b508      	push	{r3, lr}
  __HAL_FLASH_INSTRUCTION_CACHE_ENABLE();
 8000d36:	4b0b      	ldr	r3, [pc, #44]	; (8000d64 <HAL_Init+0x30>)
 8000d38:	681a      	ldr	r2, [r3, #0]
 8000d3a:	f442 7200 	orr.w	r2, r2, #512	; 0x200
 8000d3e:	601a      	str	r2, [r3, #0]
  __HAL_FLASH_DATA_CACHE_ENABLE();
 8000d40:	681a      	ldr	r2, [r3, #0]
 8000d42:	f442 6280 	orr.w	r2, r2, #1024	; 0x400
 8000d46:	601a      	str	r2, [r3, #0]
  __HAL_FLASH_PREFETCH_BUFFER_ENABLE();
 8000d48:	681a      	ldr	r2, [r3, #0]
 8000d4a:	f442 7280 	orr.w	r2, r2, #256	; 0x100
 8000d4e:	601a      	str	r2, [r3, #0]
  HAL_NVIC_SetPriorityGrouping(NVIC_PRIORITYGROUP_4);
 8000d50:	2003      	movs	r0, #3
 8000d52:	f000 f81b 	bl	8000d8c <HAL_NVIC_SetPriorityGrouping>
  HAL_InitTick(TICK_INT_PRIORITY);
 8000d56:	2000      	movs	r0, #0
 8000d58:	f7ff ffc8 	bl	8000cec <HAL_InitTick>
  HAL_MspInit();
 8000d5c:	f002 f98a 	bl	8003074 <HAL_MspInit>
}
 8000d60:	2000      	movs	r0, #0
 8000d62:	bd08      	pop	{r3, pc}
 8000d64:	40023c00 	.word	0x40023c00

08000d68 <HAL_IncTick>:
  *      implementations in user file.
  * @retval None
  */
__weak void HAL_IncTick(void)
{
  uwTick += uwTickFreq;
 8000d68:	4a03      	ldr	r2, [pc, #12]	; (8000d78 <HAL_IncTick+0x10>)
 8000d6a:	4b04      	ldr	r3, [pc, #16]	; (8000d7c <HAL_IncTick+0x14>)
 8000d6c:	6811      	ldr	r1, [r2, #0]
 8000d6e:	781b      	ldrb	r3, [r3, #0]
 8000d70:	440b      	add	r3, r1
 8000d72:	6013      	str	r3, [r2, #0]
 8000d74:	4770      	bx	lr
 8000d76:	bf00      	nop
 8000d78:	2000048c 	.word	0x2000048c
 8000d7c:	20000000 	.word	0x20000000

08000d80 <HAL_GetTick>:
  *       implementations in user file.
  * @retval tick value
  */
__weak uint32_t HAL_GetTick(void)
{
  return uwTick;
 8000d80:	4b01      	ldr	r3, [pc, #4]	; (8000d88 <HAL_GetTick+0x8>)
 8000d82:	6818      	ldr	r0, [r3, #0]
}
 8000d84:	4770      	bx	lr
 8000d86:	bf00      	nop
 8000d88:	2000048c 	.word	0x2000048c

08000d8c <HAL_NVIC_SetPriorityGrouping>:
__STATIC_INLINE void NVIC_SetPriorityGrouping(uint32_t PriorityGroup)
{
  uint32_t reg_value;
  uint32_t PriorityGroupTmp = (PriorityGroup & (uint32_t)0x07UL);             /* only values 0..7 are used          */

  reg_value  =  SCB->AIRCR;                                                   /* read old register configuration    */
 8000d8c:	4a07      	ldr	r2, [pc, #28]	; (8000dac <HAL_NVIC_SetPriorityGrouping+0x20>)
 8000d8e:	68d3      	ldr	r3, [r2, #12]
  reg_value &= ~((uint32_t)(SCB_AIRCR_VECTKEY_Msk | SCB_AIRCR_PRIGROUP_Msk)); /* clear bits to change               */
 8000d90:	f423 63e0 	bic.w	r3, r3, #1792	; 0x700
 8000d94:	041b      	lsls	r3, r3, #16
 8000d96:	0c1b      	lsrs	r3, r3, #16
 8000d98:	f043 63bf 	orr.w	r3, r3, #100139008	; 0x5f80000
  reg_value  =  (reg_value                                   |
                ((uint32_t)0x5FAUL << SCB_AIRCR_VECTKEY_Pos) |
                (PriorityGroupTmp << 8U)                      );              /* Insert write key and priorty group */
 8000d9c:	0200      	lsls	r0, r0, #8
 8000d9e:	f443 3300 	orr.w	r3, r3, #131072	; 0x20000
 8000da2:	f400 60e0 	and.w	r0, r0, #1792	; 0x700
  reg_value  =  (reg_value                                   |
 8000da6:	4303      	orrs	r3, r0
  SCB->AIRCR =  reg_value;
 8000da8:	60d3      	str	r3, [r2, #12]
 8000daa:	4770      	bx	lr
 8000dac:	e000ed00 	.word	0xe000ed00

08000db0 <HAL_NVIC_SetPriority>:
  \details Reads the priority grouping field from the NVIC Interrupt Controller.
  \return                Priority grouping field (SCB->AIRCR [10:8] PRIGROUP field).
 */
__STATIC_INLINE uint32_t NVIC_GetPriorityGrouping(void)
{
  return ((uint32_t)((SCB->AIRCR & SCB_AIRCR_PRIGROUP_Msk) >> SCB_AIRCR_PRIGROUP_Pos));
 8000db0:	4b17      	ldr	r3, [pc, #92]	; (8000e10 <HAL_NVIC_SetPriority+0x60>)
  *         This parameter can be a value between 0 and 15
  *         A lower priority value indicates a higher priority.          
  * @retval None
  */
void HAL_NVIC_SetPriority(IRQn_Type IRQn, uint32_t PreemptPriority, uint32_t SubPriority)
{ 
 8000db2:	b530      	push	{r4, r5, lr}
 8000db4:	68dc      	ldr	r4, [r3, #12]
 8000db6:	f3c4 2402 	ubfx	r4, r4, #8, #3
{
  uint32_t PriorityGroupTmp = (PriorityGroup & (uint32_t)0x07UL);   /* only values 0..7 are used          */
  uint32_t PreemptPriorityBits;
  uint32_t SubPriorityBits;

  PreemptPriorityBits = ((7UL - PriorityGroupTmp) > (uint32_t)(__NVIC_PRIO_BITS)) ? (uint32_t)(__NVIC_PRIO_BITS) : (uint32_t)(7UL - PriorityGroupTmp);
 8000dba:	f1c4 0307 	rsb	r3, r4, #7
  SubPriorityBits     = ((PriorityGroupTmp + (uint32_t)(__NVIC_PRIO_BITS)) < (uint32_t)7UL) ? (uint32_t)0UL : (uint32_t)((PriorityGroupTmp - 7UL) + (uint32_t)(__NVIC_PRIO_BITS));
 8000dbe:	1d25      	adds	r5, r4, #4
  PreemptPriorityBits = ((7UL - PriorityGroupTmp) > (uint32_t)(__NVIC_PRIO_BITS)) ? (uint32_t)(__NVIC_PRIO_BITS) : (uint32_t)(7UL - PriorityGroupTmp);
 8000dc0:	2b04      	cmp	r3, #4
 8000dc2:	bf28      	it	cs
 8000dc4:	2304      	movcs	r3, #4
  SubPriorityBits     = ((PriorityGroupTmp + (uint32_t)(__NVIC_PRIO_BITS)) < (uint32_t)7UL) ? (uint32_t)0UL : (uint32_t)((PriorityGroupTmp - 7UL) + (uint32_t)(__NVIC_PRIO_BITS));
 8000dc6:	2d06      	cmp	r5, #6

  return (
           ((PreemptPriority & (uint32_t)((1UL << (PreemptPriorityBits)) - 1UL)) << SubPriorityBits) |
 8000dc8:	f04f 0501 	mov.w	r5, #1
 8000dcc:	fa05 f303 	lsl.w	r3, r5, r3
 8000dd0:	f103 33ff 	add.w	r3, r3, #4294967295
  SubPriorityBits     = ((PriorityGroupTmp + (uint32_t)(__NVIC_PRIO_BITS)) < (uint32_t)7UL) ? (uint32_t)0UL : (uint32_t)((PriorityGroupTmp - 7UL) + (uint32_t)(__NVIC_PRIO_BITS));
 8000dd4:	bf8c      	ite	hi
 8000dd6:	3c03      	subhi	r4, #3
 8000dd8:	2400      	movls	r4, #0
           ((PreemptPriority & (uint32_t)((1UL << (PreemptPriorityBits)) - 1UL)) << SubPriorityBits) |
 8000dda:	4019      	ands	r1, r3
 8000ddc:	40a1      	lsls	r1, r4
           ((SubPriority     & (uint32_t)((1UL << (SubPriorityBits    )) - 1UL)))
 8000dde:	fa05 f404 	lsl.w	r4, r5, r4
 8000de2:	3c01      	subs	r4, #1
 8000de4:	4022      	ands	r2, r4
  if ((int32_t)(IRQn) < 0)
 8000de6:	2800      	cmp	r0, #0
           ((PreemptPriority & (uint32_t)((1UL << (PreemptPriorityBits)) - 1UL)) << SubPriorityBits) |
 8000de8:	ea42 0201 	orr.w	r2, r2, r1
 8000dec:	ea4f 1202 	mov.w	r2, r2, lsl #4
    NVIC->IP[((uint32_t)(int32_t)IRQn)]               = (uint8_t)((priority << (8U - __NVIC_PRIO_BITS)) & (uint32_t)0xFFUL);
 8000df0:	bfaf      	iteee	ge
 8000df2:	f100 4060 	addge.w	r0, r0, #3758096384	; 0xe0000000
    SCB->SHP[(((uint32_t)(int32_t)IRQn) & 0xFUL)-4UL] = (uint8_t)((priority << (8U - __NVIC_PRIO_BITS)) & (uint32_t)0xFFUL);
 8000df6:	f000 000f 	andlt.w	r0, r0, #15
 8000dfa:	4b06      	ldrlt	r3, [pc, #24]	; (8000e14 <HAL_NVIC_SetPriority+0x64>)
 8000dfc:	b2d2      	uxtblt	r2, r2
    NVIC->IP[((uint32_t)(int32_t)IRQn)]               = (uint8_t)((priority << (8U - __NVIC_PRIO_BITS)) & (uint32_t)0xFFUL);
 8000dfe:	bfa5      	ittet	ge
 8000e00:	f500 4061 	addge.w	r0, r0, #57600	; 0xe100
 8000e04:	b2d2      	uxtbge	r2, r2
    SCB->SHP[(((uint32_t)(int32_t)IRQn) & 0xFUL)-4UL] = (uint8_t)((priority << (8U - __NVIC_PRIO_BITS)) & (uint32_t)0xFFUL);
 8000e06:	541a      	strblt	r2, [r3, r0]
    NVIC->IP[((uint32_t)(int32_t)IRQn)]               = (uint8_t)((priority << (8U - __NVIC_PRIO_BITS)) & (uint32_t)0xFFUL);
 8000e08:	f880 2300 	strbge.w	r2, [r0, #768]	; 0x300
 8000e0c:	bd30      	pop	{r4, r5, pc}
 8000e0e:	bf00      	nop
 8000e10:	e000ed00 	.word	0xe000ed00
 8000e14:	e000ed14 	.word	0xe000ed14

08000e18 <HAL_NVIC_EnableIRQ>:
  NVIC->ISER[(((uint32_t)(int32_t)IRQn) >> 5UL)] = (uint32_t)(1UL << (((uint32_t)(int32_t)IRQn) & 0x1FUL));
 8000e18:	0942      	lsrs	r2, r0, #5
 8000e1a:	2301      	movs	r3, #1
 8000e1c:	f000 001f 	and.w	r0, r0, #31
 8000e20:	fa03 f000 	lsl.w	r0, r3, r0
 8000e24:	4b01      	ldr	r3, [pc, #4]	; (8000e2c <HAL_NVIC_EnableIRQ+0x14>)
 8000e26:	f843 0022 	str.w	r0, [r3, r2, lsl #2]
 8000e2a:	4770      	bx	lr
 8000e2c:	e000e100 	.word	0xe000e100

08000e30 <HAL_NVIC_DisableIRQ>:
  NVIC->ICER[(((uint32_t)(int32_t)IRQn) >> 5UL)] = (uint32_t)(1UL << (((uint32_t)(int32_t)IRQn) & 0x1FUL));
 8000e30:	0943      	lsrs	r3, r0, #5
 8000e32:	2201      	movs	r2, #1
 8000e34:	f000 001f 	and.w	r0, r0, #31
 8000e38:	fa02 f000 	lsl.w	r0, r2, r0
 8000e3c:	3320      	adds	r3, #32
 8000e3e:	4a02      	ldr	r2, [pc, #8]	; (8000e48 <HAL_NVIC_DisableIRQ+0x18>)
 8000e40:	f842 0023 	str.w	r0, [r2, r3, lsl #2]
 8000e44:	4770      	bx	lr
 8000e46:	bf00      	nop
 8000e48:	e000e100 	.word	0xe000e100

08000e4c <HAL_SYSTICK_Config>:
           function <b>SysTick_Config</b> is not included. In this case, the file <b><i>device</i>.h</b>
           must contain a vendor-specific implementation of this function.
 */
__STATIC_INLINE uint32_t SysTick_Config(uint32_t ticks)
{
  if ((ticks - 1UL) > SysTick_LOAD_RELOAD_Msk)
 8000e4c:	3801      	subs	r0, #1
 8000e4e:	f1b0 7f80 	cmp.w	r0, #16777216	; 0x1000000
 8000e52:	d20a      	bcs.n	8000e6a <HAL_SYSTICK_Config+0x1e>
  {
    return (1UL);                                                   /* Reload value impossible */
  }

  SysTick->LOAD  = (uint32_t)(ticks - 1UL);                         /* set reload register */
 8000e54:	4b06      	ldr	r3, [pc, #24]	; (8000e70 <HAL_SYSTICK_Config+0x24>)
    SCB->SHP[(((uint32_t)(int32_t)IRQn) & 0xFUL)-4UL] = (uint8_t)((priority << (8U - __NVIC_PRIO_BITS)) & (uint32_t)0xFFUL);
 8000e56:	4a07      	ldr	r2, [pc, #28]	; (8000e74 <HAL_SYSTICK_Config+0x28>)
  SysTick->LOAD  = (uint32_t)(ticks - 1UL);                         /* set reload register */
 8000e58:	6058      	str	r0, [r3, #4]
    SCB->SHP[(((uint32_t)(int32_t)IRQn) & 0xFUL)-4UL] = (uint8_t)((priority << (8U - __NVIC_PRIO_BITS)) & (uint32_t)0xFFUL);
 8000e5a:	21f0      	movs	r1, #240	; 0xf0
 8000e5c:	f882 1023 	strb.w	r1, [r2, #35]	; 0x23
  NVIC_SetPriority (SysTick_IRQn, (1UL << __NVIC_PRIO_BITS) - 1UL); /* set Priority for Systick Interrupt */
  SysTick->VAL   = 0UL;                                             /* Load the SysTick Counter Value */
 8000e60:	2000      	movs	r0, #0
  SysTick->CTRL  = SysTick_CTRL_CLKSOURCE_Msk |
 8000e62:	2207      	movs	r2, #7
  SysTick->VAL   = 0UL;                                             /* Load the SysTick Counter Value */
 8000e64:	6098      	str	r0, [r3, #8]
  SysTick->CTRL  = SysTick_CTRL_CLKSOURCE_Msk |
 8000e66:	601a      	str	r2, [r3, #0]
 8000e68:	4770      	bx	lr
    return (1UL);                                                   /* Reload value impossible */
 8000e6a:	2001      	movs	r0, #1
  *                  - 1  Function failed.
  */
uint32_t HAL_SYSTICK_Config(uint32_t TicksNumb)
{
   return SysTick_Config(TicksNumb);
}
 8000e6c:	4770      	bx	lr
 8000e6e:	bf00      	nop
 8000e70:	e000e010 	.word	0xe000e010
 8000e74:	e000ed00 	.word	0xe000ed00

08000e78 <DMA_CalcBaseAndBitshift>:
  *                     the configuration information for the specified DMA Stream. 
  * @retval Stream base address
  */
static uint32_t DMA_CalcBaseAndBitshift(DMA_HandleTypeDef *hdma)
{
  uint32_t stream_number = (((uint32_t)hdma->Instance & 0xFFU) - 16U) / 24U;
 8000e78:	6803      	ldr	r3, [r0, #0]
 8000e7a:	b2da      	uxtb	r2, r3
 8000e7c:	f423 737f 	bic.w	r3, r3, #1020	; 0x3fc
 8000e80:	f023 0303 	bic.w	r3, r3, #3
 8000e84:	2118      	movs	r1, #24
 8000e86:	3a10      	subs	r2, #16
 8000e88:	fbb2 f2f1 	udiv	r2, r2, r1
  
  /* lookup table for necessary bitshift of flags within status registers */
  static const uint8_t flagBitshiftOffset[8U] = {0U, 6U, 16U, 22U, 0U, 6U, 16U, 22U};
  hdma->StreamIndex = flagBitshiftOffset[stream_number];
 8000e8c:	4904      	ldr	r1, [pc, #16]	; (8000ea0 <DMA_CalcBaseAndBitshift+0x28>)
  
  if (stream_number > 3U)
 8000e8e:	2a03      	cmp	r2, #3
  {
    /* return pointer to HISR and HIFCR */
    hdma->StreamBaseAddress = (((uint32_t)hdma->Instance & (uint32_t)(~0x3FFU)) + 4U);
 8000e90:	bf88      	it	hi
 8000e92:	3304      	addhi	r3, #4
  hdma->StreamIndex = flagBitshiftOffset[stream_number];
 8000e94:	5c89      	ldrb	r1, [r1, r2]
  }
  else
  {
    /* return pointer to LISR and LIFCR */
    hdma->StreamBaseAddress = ((uint32_t)hdma->Instance & (uint32_t)(~0x3FFU));
 8000e96:	6583      	str	r3, [r0, #88]	; 0x58
  hdma->StreamIndex = flagBitshiftOffset[stream_number];
 8000e98:	65c1      	str	r1, [r0, #92]	; 0x5c
  }
  
  return hdma->StreamBaseAddress;
}
 8000e9a:	6d80      	ldr	r0, [r0, #88]	; 0x58
 8000e9c:	4770      	bx	lr
 8000e9e:	bf00      	nop
 8000ea0:	08003510 	.word	0x08003510

08000ea4 <HAL_DMA_Init>:
{
 8000ea4:	b570      	push	{r4, r5, r6, lr}
 8000ea6:	4604      	mov	r4, r0
  uint32_t tickstart = HAL_GetTick();
 8000ea8:	f7ff ff6a 	bl	8000d80 <HAL_GetTick>
 8000eac:	4605      	mov	r5, r0
  if(hdma == NULL)
 8000eae:	2c00      	cmp	r4, #0
 8000eb0:	d071      	beq.n	8000f96 <HAL_DMA_Init+0xf2>
  __HAL_UNLOCK(hdma);
 8000eb2:	2300      	movs	r3, #0
 8000eb4:	f884 3034 	strb.w	r3, [r4, #52]	; 0x34
  __HAL_DMA_DISABLE(hdma);
 8000eb8:	6822      	ldr	r2, [r4, #0]
  hdma->State = HAL_DMA_STATE_BUSY;
 8000eba:	2302      	movs	r3, #2
 8000ebc:	f884 3035 	strb.w	r3, [r4, #53]	; 0x35
  __HAL_DMA_DISABLE(hdma);
 8000ec0:	6813      	ldr	r3, [r2, #0]
 8000ec2:	f023 0301 	bic.w	r3, r3, #1
 8000ec6:	6013      	str	r3, [r2, #0]
  while((hdma->Instance->CR & DMA_SxCR_EN) != RESET)
 8000ec8:	6821      	ldr	r1, [r4, #0]
 8000eca:	680b      	ldr	r3, [r1, #0]
 8000ecc:	07d8      	lsls	r0, r3, #31
 8000ece:	d43c      	bmi.n	8000f4a <HAL_DMA_Init+0xa6>
  tmp = hdma->Instance->CR;
 8000ed0:	680b      	ldr	r3, [r1, #0]
  tmp &= ((uint32_t)~(DMA_SxCR_CHSEL | DMA_SxCR_MBURST | DMA_SxCR_PBURST | \
 8000ed2:	4d32      	ldr	r5, [pc, #200]	; (8000f9c <HAL_DMA_Init+0xf8>)
  tmp |=  hdma->Init.Channel             | hdma->Init.Direction        |
 8000ed4:	6862      	ldr	r2, [r4, #4]
          hdma->Init.PeriphDataAlignment | hdma->Init.MemDataAlignment |
 8000ed6:	69a0      	ldr	r0, [r4, #24]
  tmp &= ((uint32_t)~(DMA_SxCR_CHSEL | DMA_SxCR_MBURST | DMA_SxCR_PBURST | \
 8000ed8:	401d      	ands	r5, r3
  tmp |=  hdma->Init.Channel             | hdma->Init.Direction        |
 8000eda:	68a3      	ldr	r3, [r4, #8]
 8000edc:	4313      	orrs	r3, r2
 8000ede:	68e2      	ldr	r2, [r4, #12]
 8000ee0:	4313      	orrs	r3, r2
          hdma->Init.PeriphInc           | hdma->Init.MemInc           |
 8000ee2:	6922      	ldr	r2, [r4, #16]
 8000ee4:	4313      	orrs	r3, r2
 8000ee6:	6962      	ldr	r2, [r4, #20]
 8000ee8:	4313      	orrs	r3, r2
          hdma->Init.PeriphDataAlignment | hdma->Init.MemDataAlignment |
 8000eea:	69e2      	ldr	r2, [r4, #28]
 8000eec:	4303      	orrs	r3, r0
 8000eee:	4313      	orrs	r3, r2
          hdma->Init.Mode                | hdma->Init.Priority;
 8000ef0:	6a22      	ldr	r2, [r4, #32]
 8000ef2:	4313      	orrs	r3, r2
  if(hdma->Init.FIFOMode == DMA_FIFOMODE_ENABLE)
 8000ef4:	6a62      	ldr	r2, [r4, #36]	; 0x24
 8000ef6:	2a04      	cmp	r2, #4
  tmp |=  hdma->Init.Channel             | hdma->Init.Direction        |
 8000ef8:	ea43 0305 	orr.w	r3, r3, r5
    tmp |=  hdma->Init.MemBurst | hdma->Init.PeriphBurst;
 8000efc:	bf01      	itttt	eq
 8000efe:	6b26      	ldreq	r6, [r4, #48]	; 0x30
 8000f00:	6ae5      	ldreq	r5, [r4, #44]	; 0x2c
 8000f02:	4335      	orreq	r5, r6
 8000f04:	432b      	orreq	r3, r5
  hdma->Instance->CR = tmp;  
 8000f06:	600b      	str	r3, [r1, #0]
  tmp = hdma->Instance->FCR;
 8000f08:	694b      	ldr	r3, [r1, #20]
  if(hdma->Init.FIFOMode == DMA_FIFOMODE_ENABLE)
 8000f0a:	2a04      	cmp	r2, #4
  tmp &= (uint32_t)~(DMA_SxFCR_DMDIS | DMA_SxFCR_FTH);
 8000f0c:	f023 0307 	bic.w	r3, r3, #7
  tmp |= hdma->Init.FIFOMode;
 8000f10:	ea43 0302 	orr.w	r3, r3, r2
  if(hdma->Init.FIFOMode == DMA_FIFOMODE_ENABLE)
 8000f14:	d10b      	bne.n	8000f2e <HAL_DMA_Init+0x8a>
    tmp |= hdma->Init.FIFOThreshold;
 8000f16:	6aa2      	ldr	r2, [r4, #40]	; 0x28
    if (hdma->Init.MemBurst != DMA_MBURST_SINGLE)
 8000f18:	6ae5      	ldr	r5, [r4, #44]	; 0x2c
    tmp |= hdma->Init.FIFOThreshold;
 8000f1a:	4313      	orrs	r3, r2
    if (hdma->Init.MemBurst != DMA_MBURST_SINGLE)
 8000f1c:	b13d      	cbz	r5, 8000f2e <HAL_DMA_Init+0x8a>
{
  HAL_StatusTypeDef status = HAL_OK;
  uint32_t tmp = hdma->Init.FIFOThreshold;
  
  /* Memory Data size equal to Byte */
  if(hdma->Init.MemDataAlignment == DMA_MDATAALIGN_BYTE)
 8000f1e:	b9f8      	cbnz	r0, 8000f60 <HAL_DMA_Init+0xbc>
  {
    switch (tmp)
 8000f20:	2a01      	cmp	r2, #1
 8000f22:	d02d      	beq.n	8000f80 <HAL_DMA_Init+0xdc>
 8000f24:	d301      	bcc.n	8000f2a <HAL_DMA_Init+0x86>
 8000f26:	2a02      	cmp	r2, #2
  }
  
  /* Memory Data size equal to Word */
  else
  {
    switch (tmp)
 8000f28:	d101      	bne.n	8000f2e <HAL_DMA_Init+0x8a>
    case DMA_FIFO_THRESHOLD_HALFFULL:
    case DMA_FIFO_THRESHOLD_3QUARTERSFULL:
      status = HAL_ERROR;
      break;
    case DMA_FIFO_THRESHOLD_FULL:
      if ((hdma->Init.MemBurst & DMA_SxCR_MBURST_1) == DMA_SxCR_MBURST_1)
 8000f2a:	01ea      	lsls	r2, r5, #7
 8000f2c:	d42b      	bmi.n	8000f86 <HAL_DMA_Init+0xe2>
  hdma->Instance->FCR = tmp;
 8000f2e:	614b      	str	r3, [r1, #20]
  regs = (DMA_Base_Registers *)DMA_CalcBaseAndBitshift(hdma);
 8000f30:	4620      	mov	r0, r4
 8000f32:	f7ff ffa1 	bl	8000e78 <DMA_CalcBaseAndBitshift>
  regs->IFCR = 0x3FU << hdma->StreamIndex;
 8000f36:	6de2      	ldr	r2, [r4, #92]	; 0x5c
 8000f38:	233f      	movs	r3, #63	; 0x3f
 8000f3a:	4093      	lsls	r3, r2
 8000f3c:	6083      	str	r3, [r0, #8]
  hdma->ErrorCode = HAL_DMA_ERROR_NONE;
 8000f3e:	2000      	movs	r0, #0
  hdma->State = HAL_DMA_STATE_READY;
 8000f40:	2301      	movs	r3, #1
  hdma->ErrorCode = HAL_DMA_ERROR_NONE;
 8000f42:	6560      	str	r0, [r4, #84]	; 0x54
  hdma->State = HAL_DMA_STATE_READY;
 8000f44:	f884 3035 	strb.w	r3, [r4, #53]	; 0x35
  return HAL_OK;
 8000f48:	bd70      	pop	{r4, r5, r6, pc}
    if((HAL_GetTick() - tickstart ) > HAL_TIMEOUT_DMA_ABORT)
 8000f4a:	f7ff ff19 	bl	8000d80 <HAL_GetTick>
 8000f4e:	1b40      	subs	r0, r0, r5
 8000f50:	2805      	cmp	r0, #5
 8000f52:	d9b9      	bls.n	8000ec8 <HAL_DMA_Init+0x24>
      hdma->ErrorCode = HAL_DMA_ERROR_TIMEOUT;
 8000f54:	2320      	movs	r3, #32
 8000f56:	6563      	str	r3, [r4, #84]	; 0x54
      hdma->State = HAL_DMA_STATE_TIMEOUT;
 8000f58:	2003      	movs	r0, #3
        hdma->State = HAL_DMA_STATE_READY;
 8000f5a:	f884 0035 	strb.w	r0, [r4, #53]	; 0x35
}
 8000f5e:	bd70      	pop	{r4, r5, r6, pc}
  else if (hdma->Init.MemDataAlignment == DMA_MDATAALIGN_HALFWORD)
 8000f60:	f5b0 5f00 	cmp.w	r0, #8192	; 0x2000
 8000f64:	d113      	bne.n	8000f8e <HAL_DMA_Init+0xea>
    switch (tmp)
 8000f66:	2a03      	cmp	r2, #3
 8000f68:	d8e1      	bhi.n	8000f2e <HAL_DMA_Init+0x8a>
 8000f6a:	a001      	add	r0, pc, #4	; (adr r0, 8000f70 <HAL_DMA_Init+0xcc>)
 8000f6c:	f850 f022 	ldr.w	pc, [r0, r2, lsl #2]
 8000f70:	08000f87 	.word	0x08000f87
 8000f74:	08000f2b 	.word	0x08000f2b
 8000f78:	08000f87 	.word	0x08000f87
 8000f7c:	08000f81 	.word	0x08000f81
      if (hdma->Init.MemBurst == DMA_MBURST_INC16)
 8000f80:	f1b5 7fc0 	cmp.w	r5, #25165824	; 0x1800000
 8000f84:	d1d3      	bne.n	8000f2e <HAL_DMA_Init+0x8a>
        hdma->ErrorCode = HAL_DMA_ERROR_PARAM;
 8000f86:	2340      	movs	r3, #64	; 0x40
 8000f88:	6563      	str	r3, [r4, #84]	; 0x54
        hdma->State = HAL_DMA_STATE_READY;
 8000f8a:	2001      	movs	r0, #1
 8000f8c:	e7e5      	b.n	8000f5a <HAL_DMA_Init+0xb6>
    switch (tmp)
 8000f8e:	2a02      	cmp	r2, #2
 8000f90:	d9f9      	bls.n	8000f86 <HAL_DMA_Init+0xe2>
 8000f92:	2a03      	cmp	r2, #3
 8000f94:	e7c8      	b.n	8000f28 <HAL_DMA_Init+0x84>
    return HAL_ERROR;
 8000f96:	2001      	movs	r0, #1
 8000f98:	bd70      	pop	{r4, r5, r6, pc}
 8000f9a:	bf00      	nop
 8000f9c:	f010803f 	.word	0xf010803f

08000fa0 <HAL_DMA_Start_IT>:
{
 8000fa0:	b570      	push	{r4, r5, r6, lr}
  __HAL_LOCK(hdma);
 8000fa2:	f890 4034 	ldrb.w	r4, [r0, #52]	; 0x34
 8000fa6:	2c01      	cmp	r4, #1
 8000fa8:	d036      	beq.n	8001018 <HAL_DMA_Start_IT+0x78>
 8000faa:	2401      	movs	r4, #1
 8000fac:	f880 4034 	strb.w	r4, [r0, #52]	; 0x34
  if(HAL_DMA_STATE_READY == hdma->State)
 8000fb0:	f890 4035 	ldrb.w	r4, [r0, #53]	; 0x35
  DMA_Base_Registers *regs = (DMA_Base_Registers *)hdma->StreamBaseAddress;
 8000fb4:	6d86      	ldr	r6, [r0, #88]	; 0x58
  if(HAL_DMA_STATE_READY == hdma->State)
 8000fb6:	2c01      	cmp	r4, #1
 8000fb8:	f04f 0500 	mov.w	r5, #0
 8000fbc:	f04f 0402 	mov.w	r4, #2
 8000fc0:	d128      	bne.n	8001014 <HAL_DMA_Start_IT+0x74>
    hdma->State = HAL_DMA_STATE_BUSY;
 8000fc2:	f880 4035 	strb.w	r4, [r0, #53]	; 0x35
  hdma->Instance->CR &= (uint32_t)(~DMA_SxCR_DBM);
 8000fc6:	6804      	ldr	r4, [r0, #0]
    hdma->ErrorCode = HAL_DMA_ERROR_NONE;
 8000fc8:	6545      	str	r5, [r0, #84]	; 0x54
  hdma->Instance->CR &= (uint32_t)(~DMA_SxCR_DBM);
 8000fca:	6825      	ldr	r5, [r4, #0]
 8000fcc:	f425 2580 	bic.w	r5, r5, #262144	; 0x40000
 8000fd0:	6025      	str	r5, [r4, #0]
  hdma->Instance->NDTR = DataLength;
 8000fd2:	6063      	str	r3, [r4, #4]
  if((hdma->Init.Direction) == DMA_MEMORY_TO_PERIPH)
 8000fd4:	6883      	ldr	r3, [r0, #8]
 8000fd6:	2b40      	cmp	r3, #64	; 0x40
    hdma->Instance->PAR = DstAddress;
 8000fd8:	bf0e      	itee	eq
 8000fda:	60a2      	streq	r2, [r4, #8]
    hdma->Instance->PAR = SrcAddress;
 8000fdc:	60a1      	strne	r1, [r4, #8]
    hdma->Instance->M0AR = DstAddress;
 8000fde:	60e2      	strne	r2, [r4, #12]
    regs->IFCR = 0x3FU << hdma->StreamIndex;
 8000fe0:	6dc2      	ldr	r2, [r0, #92]	; 0x5c
    hdma->Instance->M0AR = SrcAddress;
 8000fe2:	bf08      	it	eq
 8000fe4:	60e1      	streq	r1, [r4, #12]
    regs->IFCR = 0x3FU << hdma->StreamIndex;
 8000fe6:	233f      	movs	r3, #63	; 0x3f
 8000fe8:	4093      	lsls	r3, r2
 8000fea:	60b3      	str	r3, [r6, #8]
    hdma->Instance->CR  |= DMA_IT_TC | DMA_IT_TE | DMA_IT_DME;
 8000fec:	6823      	ldr	r3, [r4, #0]
 8000fee:	f043 0316 	orr.w	r3, r3, #22
 8000ff2:	6023      	str	r3, [r4, #0]
    hdma->Instance->FCR |= DMA_IT_FE;
 8000ff4:	6963      	ldr	r3, [r4, #20]
 8000ff6:	f043 0380 	orr.w	r3, r3, #128	; 0x80
 8000ffa:	6163      	str	r3, [r4, #20]
    if(hdma->XferHalfCpltCallback != NULL)
 8000ffc:	6c03      	ldr	r3, [r0, #64]	; 0x40
 8000ffe:	b11b      	cbz	r3, 8001008 <HAL_DMA_Start_IT+0x68>
      hdma->Instance->CR  |= DMA_IT_HT;
 8001000:	6823      	ldr	r3, [r4, #0]
 8001002:	f043 0308 	orr.w	r3, r3, #8
 8001006:	6023      	str	r3, [r4, #0]
    __HAL_DMA_ENABLE(hdma);
 8001008:	6823      	ldr	r3, [r4, #0]
 800100a:	f043 0301 	orr.w	r3, r3, #1
 800100e:	6023      	str	r3, [r4, #0]
  HAL_StatusTypeDef status = HAL_OK;
 8001010:	2000      	movs	r0, #0
 8001012:	bd70      	pop	{r4, r5, r6, pc}
    __HAL_UNLOCK(hdma);	  
 8001014:	f880 5034 	strb.w	r5, [r0, #52]	; 0x34
  __HAL_LOCK(hdma);
 8001018:	2002      	movs	r0, #2
}
 800101a:	bd70      	pop	{r4, r5, r6, pc}

0800101c <HAL_DMA_IRQHandler>:
{
 800101c:	b5f7      	push	{r0, r1, r2, r4, r5, r6, r7, lr}
  __IO uint32_t count = 0U;
 800101e:	2300      	movs	r3, #0
 8001020:	9301      	str	r3, [sp, #4]
  uint32_t timeout = SystemCoreClock / 9600U;
 8001022:	4b5a      	ldr	r3, [pc, #360]	; (800118c <HAL_DMA_IRQHandler+0x170>)
  DMA_Base_Registers *regs = (DMA_Base_Registers *)hdma->StreamBaseAddress;
 8001024:	6d85      	ldr	r5, [r0, #88]	; 0x58
  uint32_t timeout = SystemCoreClock / 9600U;
 8001026:	681f      	ldr	r7, [r3, #0]
  if ((tmpisr & (DMA_FLAG_TEIF0_4 << hdma->StreamIndex)) != RESET)
 8001028:	6dc3      	ldr	r3, [r0, #92]	; 0x5c
  tmpisr = regs->ISR;
 800102a:	682e      	ldr	r6, [r5, #0]
  if ((tmpisr & (DMA_FLAG_TEIF0_4 << hdma->StreamIndex)) != RESET)
 800102c:	2208      	movs	r2, #8
 800102e:	409a      	lsls	r2, r3
 8001030:	4216      	tst	r6, r2
{
 8001032:	4604      	mov	r4, r0
  if ((tmpisr & (DMA_FLAG_TEIF0_4 << hdma->StreamIndex)) != RESET)
 8001034:	d00c      	beq.n	8001050 <HAL_DMA_IRQHandler+0x34>
    if(__HAL_DMA_GET_IT_SOURCE(hdma, DMA_IT_TE) != RESET)
 8001036:	6801      	ldr	r1, [r0, #0]
 8001038:	6808      	ldr	r0, [r1, #0]
 800103a:	0740      	lsls	r0, r0, #29
 800103c:	d508      	bpl.n	8001050 <HAL_DMA_IRQHandler+0x34>
      hdma->Instance->CR  &= ~(DMA_IT_TE);
 800103e:	6808      	ldr	r0, [r1, #0]
 8001040:	f020 0004 	bic.w	r0, r0, #4
 8001044:	6008      	str	r0, [r1, #0]
      regs->IFCR = DMA_FLAG_TEIF0_4 << hdma->StreamIndex;
 8001046:	60aa      	str	r2, [r5, #8]
      hdma->ErrorCode |= HAL_DMA_ERROR_TE;
 8001048:	6d62      	ldr	r2, [r4, #84]	; 0x54
 800104a:	f042 0201 	orr.w	r2, r2, #1
 800104e:	6562      	str	r2, [r4, #84]	; 0x54
  if ((tmpisr & (DMA_FLAG_FEIF0_4 << hdma->StreamIndex)) != RESET)
 8001050:	2201      	movs	r2, #1
 8001052:	409a      	lsls	r2, r3
 8001054:	4216      	tst	r6, r2
 8001056:	d008      	beq.n	800106a <HAL_DMA_IRQHandler+0x4e>
    if(__HAL_DMA_GET_IT_SOURCE(hdma, DMA_IT_FE) != RESET)
 8001058:	6821      	ldr	r1, [r4, #0]
 800105a:	6949      	ldr	r1, [r1, #20]
 800105c:	0609      	lsls	r1, r1, #24
      regs->IFCR = DMA_FLAG_FEIF0_4 << hdma->StreamIndex;
 800105e:	bf41      	itttt	mi
 8001060:	60aa      	strmi	r2, [r5, #8]
      hdma->ErrorCode |= HAL_DMA_ERROR_FE;
 8001062:	6d62      	ldrmi	r2, [r4, #84]	; 0x54
 8001064:	f042 0202 	orrmi.w	r2, r2, #2
 8001068:	6562      	strmi	r2, [r4, #84]	; 0x54
  if ((tmpisr & (DMA_FLAG_DMEIF0_4 << hdma->StreamIndex)) != RESET)
 800106a:	2204      	movs	r2, #4
 800106c:	409a      	lsls	r2, r3
 800106e:	4216      	tst	r6, r2
 8001070:	d008      	beq.n	8001084 <HAL_DMA_IRQHandler+0x68>
    if(__HAL_DMA_GET_IT_SOURCE(hdma, DMA_IT_DME) != RESET)
 8001072:	6821      	ldr	r1, [r4, #0]
 8001074:	6809      	ldr	r1, [r1, #0]
 8001076:	0788      	lsls	r0, r1, #30
      regs->IFCR = DMA_FLAG_DMEIF0_4 << hdma->StreamIndex;
 8001078:	bf41      	itttt	mi
 800107a:	60aa      	strmi	r2, [r5, #8]
      hdma->ErrorCode |= HAL_DMA_ERROR_DME;
 800107c:	6d62      	ldrmi	r2, [r4, #84]	; 0x54
 800107e:	f042 0204 	orrmi.w	r2, r2, #4
 8001082:	6562      	strmi	r2, [r4, #84]	; 0x54
  if ((tmpisr & (DMA_FLAG_HTIF0_4 << hdma->StreamIndex)) != RESET)
 8001084:	2210      	movs	r2, #16
 8001086:	409a      	lsls	r2, r3
 8001088:	4216      	tst	r6, r2
 800108a:	d010      	beq.n	80010ae <HAL_DMA_IRQHandler+0x92>
    if(__HAL_DMA_GET_IT_SOURCE(hdma, DMA_IT_HT) != RESET)
 800108c:	6823      	ldr	r3, [r4, #0]
 800108e:	6819      	ldr	r1, [r3, #0]
 8001090:	0709      	lsls	r1, r1, #28
 8001092:	d50c      	bpl.n	80010ae <HAL_DMA_IRQHandler+0x92>
      regs->IFCR = DMA_FLAG_HTIF0_4 << hdma->StreamIndex;
 8001094:	60aa      	str	r2, [r5, #8]
      if(((hdma->Instance->CR) & (uint32_t)(DMA_SxCR_DBM)) != RESET)
 8001096:	681a      	ldr	r2, [r3, #0]
 8001098:	0350      	lsls	r0, r2, #13
 800109a:	d535      	bpl.n	8001108 <HAL_DMA_IRQHandler+0xec>
        if((hdma->Instance->CR & DMA_SxCR_CT) == RESET)
 800109c:	681b      	ldr	r3, [r3, #0]
 800109e:	0319      	lsls	r1, r3, #12
 80010a0:	d401      	bmi.n	80010a6 <HAL_DMA_IRQHandler+0x8a>
        if(hdma->XferHalfCpltCallback != NULL)
 80010a2:	6c23      	ldr	r3, [r4, #64]	; 0x40
 80010a4:	e000      	b.n	80010a8 <HAL_DMA_IRQHandler+0x8c>
          if(hdma->XferM1HalfCpltCallback != NULL)
 80010a6:	6ca3      	ldr	r3, [r4, #72]	; 0x48
        if(hdma->XferHalfCpltCallback != NULL)
 80010a8:	b10b      	cbz	r3, 80010ae <HAL_DMA_IRQHandler+0x92>
          hdma->XferHalfCpltCallback(hdma);
 80010aa:	4620      	mov	r0, r4
 80010ac:	4798      	blx	r3
  if ((tmpisr & (DMA_FLAG_TCIF0_4 << hdma->StreamIndex)) != RESET)
 80010ae:	6de1      	ldr	r1, [r4, #92]	; 0x5c
 80010b0:	2220      	movs	r2, #32
 80010b2:	408a      	lsls	r2, r1
 80010b4:	4216      	tst	r6, r2
 80010b6:	d038      	beq.n	800112a <HAL_DMA_IRQHandler+0x10e>
    if(__HAL_DMA_GET_IT_SOURCE(hdma, DMA_IT_TC) != RESET)
 80010b8:	6823      	ldr	r3, [r4, #0]
 80010ba:	6818      	ldr	r0, [r3, #0]
 80010bc:	06c6      	lsls	r6, r0, #27
 80010be:	d534      	bpl.n	800112a <HAL_DMA_IRQHandler+0x10e>
      regs->IFCR = DMA_FLAG_TCIF0_4 << hdma->StreamIndex;
 80010c0:	60aa      	str	r2, [r5, #8]
      if(HAL_DMA_STATE_ABORT == hdma->State)
 80010c2:	f894 2035 	ldrb.w	r2, [r4, #53]	; 0x35
 80010c6:	2a05      	cmp	r2, #5
        hdma->Instance->CR  &= ~(DMA_IT_TC | DMA_IT_TE | DMA_IT_DME);
 80010c8:	681a      	ldr	r2, [r3, #0]
      if(HAL_DMA_STATE_ABORT == hdma->State)
 80010ca:	d125      	bne.n	8001118 <HAL_DMA_IRQHandler+0xfc>
        hdma->Instance->CR  &= ~(DMA_IT_TC | DMA_IT_TE | DMA_IT_DME);
 80010cc:	f022 0216 	bic.w	r2, r2, #22
 80010d0:	601a      	str	r2, [r3, #0]
        hdma->Instance->FCR &= ~(DMA_IT_FE);
 80010d2:	695a      	ldr	r2, [r3, #20]
 80010d4:	f022 0280 	bic.w	r2, r2, #128	; 0x80
 80010d8:	615a      	str	r2, [r3, #20]
        if((hdma->XferHalfCpltCallback != NULL) || (hdma->XferM1HalfCpltCallback != NULL))
 80010da:	6c22      	ldr	r2, [r4, #64]	; 0x40
 80010dc:	b90a      	cbnz	r2, 80010e2 <HAL_DMA_IRQHandler+0xc6>
 80010de:	6ca2      	ldr	r2, [r4, #72]	; 0x48
 80010e0:	b11a      	cbz	r2, 80010ea <HAL_DMA_IRQHandler+0xce>
          hdma->Instance->CR  &= ~(DMA_IT_HT);
 80010e2:	681a      	ldr	r2, [r3, #0]
 80010e4:	f022 0208 	bic.w	r2, r2, #8
 80010e8:	601a      	str	r2, [r3, #0]
        regs->IFCR = 0x3FU << hdma->StreamIndex;
 80010ea:	233f      	movs	r3, #63	; 0x3f
 80010ec:	408b      	lsls	r3, r1
 80010ee:	60ab      	str	r3, [r5, #8]
        __HAL_UNLOCK(hdma);
 80010f0:	2300      	movs	r3, #0
 80010f2:	f884 3034 	strb.w	r3, [r4, #52]	; 0x34
        hdma->State = HAL_DMA_STATE_READY;
 80010f6:	2301      	movs	r3, #1
 80010f8:	f884 3035 	strb.w	r3, [r4, #53]	; 0x35
        if(hdma->XferAbortCallback != NULL)
 80010fc:	6d23      	ldr	r3, [r4, #80]	; 0x50
    if(hdma->XferErrorCallback != NULL)
 80010fe:	b10b      	cbz	r3, 8001104 <HAL_DMA_IRQHandler+0xe8>
      hdma->XferErrorCallback(hdma);
 8001100:	4620      	mov	r0, r4
 8001102:	4798      	blx	r3
}
 8001104:	b003      	add	sp, #12
 8001106:	bdf0      	pop	{r4, r5, r6, r7, pc}
        if((hdma->Instance->CR & DMA_SxCR_CIRC) == RESET)
 8001108:	681a      	ldr	r2, [r3, #0]
 800110a:	05d2      	lsls	r2, r2, #23
          hdma->Instance->CR  &= ~(DMA_IT_HT);
 800110c:	bf5e      	ittt	pl
 800110e:	681a      	ldrpl	r2, [r3, #0]
 8001110:	f022 0208 	bicpl.w	r2, r2, #8
 8001114:	601a      	strpl	r2, [r3, #0]
 8001116:	e7c4      	b.n	80010a2 <HAL_DMA_IRQHandler+0x86>
      if(((hdma->Instance->CR) & (uint32_t)(DMA_SxCR_DBM)) != RESET)
 8001118:	0350      	lsls	r0, r2, #13
 800111a:	d528      	bpl.n	800116e <HAL_DMA_IRQHandler+0x152>
        if((hdma->Instance->CR & DMA_SxCR_CT) == RESET)
 800111c:	681b      	ldr	r3, [r3, #0]
 800111e:	0319      	lsls	r1, r3, #12
 8001120:	d432      	bmi.n	8001188 <HAL_DMA_IRQHandler+0x16c>
          if(hdma->XferM1CpltCallback != NULL)
 8001122:	6c63      	ldr	r3, [r4, #68]	; 0x44
        if(hdma->XferCpltCallback != NULL)
 8001124:	b10b      	cbz	r3, 800112a <HAL_DMA_IRQHandler+0x10e>
          hdma->XferCpltCallback(hdma);
 8001126:	4620      	mov	r0, r4
 8001128:	4798      	blx	r3
  if(hdma->ErrorCode != HAL_DMA_ERROR_NONE)
 800112a:	6d63      	ldr	r3, [r4, #84]	; 0x54
 800112c:	2b00      	cmp	r3, #0
 800112e:	d0e9      	beq.n	8001104 <HAL_DMA_IRQHandler+0xe8>
    if((hdma->ErrorCode & HAL_DMA_ERROR_TE) != RESET)
 8001130:	6d63      	ldr	r3, [r4, #84]	; 0x54
 8001132:	07da      	lsls	r2, r3, #31
 8001134:	d519      	bpl.n	800116a <HAL_DMA_IRQHandler+0x14e>
      hdma->State = HAL_DMA_STATE_ABORT;
 8001136:	2305      	movs	r3, #5
      __HAL_DMA_DISABLE(hdma);
 8001138:	6822      	ldr	r2, [r4, #0]
      hdma->State = HAL_DMA_STATE_ABORT;
 800113a:	f884 3035 	strb.w	r3, [r4, #53]	; 0x35
      __HAL_DMA_DISABLE(hdma);
 800113e:	6813      	ldr	r3, [r2, #0]
 8001140:	f023 0301 	bic.w	r3, r3, #1
 8001144:	6013      	str	r3, [r2, #0]
  uint32_t timeout = SystemCoreClock / 9600U;
 8001146:	f44f 5316 	mov.w	r3, #9600	; 0x2580
 800114a:	fbb7 f7f3 	udiv	r7, r7, r3
        if (++count > timeout)
 800114e:	9b01      	ldr	r3, [sp, #4]
 8001150:	3301      	adds	r3, #1
 8001152:	429f      	cmp	r7, r3
 8001154:	9301      	str	r3, [sp, #4]
 8001156:	d302      	bcc.n	800115e <HAL_DMA_IRQHandler+0x142>
      while((hdma->Instance->CR & DMA_SxCR_EN) != RESET);
 8001158:	6813      	ldr	r3, [r2, #0]
 800115a:	07db      	lsls	r3, r3, #31
 800115c:	d4f7      	bmi.n	800114e <HAL_DMA_IRQHandler+0x132>
      __HAL_UNLOCK(hdma);
 800115e:	2300      	movs	r3, #0
 8001160:	f884 3034 	strb.w	r3, [r4, #52]	; 0x34
      hdma->State = HAL_DMA_STATE_READY;
 8001164:	2301      	movs	r3, #1
 8001166:	f884 3035 	strb.w	r3, [r4, #53]	; 0x35
    if(hdma->XferErrorCallback != NULL)
 800116a:	6ce3      	ldr	r3, [r4, #76]	; 0x4c
 800116c:	e7c7      	b.n	80010fe <HAL_DMA_IRQHandler+0xe2>
        if((hdma->Instance->CR & DMA_SxCR_CIRC) == RESET)
 800116e:	681a      	ldr	r2, [r3, #0]
 8001170:	f412 7280 	ands.w	r2, r2, #256	; 0x100
 8001174:	d108      	bne.n	8001188 <HAL_DMA_IRQHandler+0x16c>
          hdma->Instance->CR  &= ~(DMA_IT_TC);
 8001176:	6819      	ldr	r1, [r3, #0]
 8001178:	f021 0110 	bic.w	r1, r1, #16
 800117c:	6019      	str	r1, [r3, #0]
          hdma->State = HAL_DMA_STATE_READY;
 800117e:	2301      	movs	r3, #1
          __HAL_UNLOCK(hdma);
 8001180:	f884 2034 	strb.w	r2, [r4, #52]	; 0x34
          hdma->State = HAL_DMA_STATE_READY;
 8001184:	f884 3035 	strb.w	r3, [r4, #53]	; 0x35
        if(hdma->XferCpltCallback != NULL)
 8001188:	6be3      	ldr	r3, [r4, #60]	; 0x3c
 800118a:	e7cb      	b.n	8001124 <HAL_DMA_IRQHandler+0x108>
 800118c:	20000024 	.word	0x20000024

08001190 <HAL_GPIO_Init>:
  * @param  GPIO_Init pointer to a GPIO_InitTypeDef structure that contains
  *         the configuration information for the specified GPIO peripheral.
  * @retval None
  */
void HAL_GPIO_Init(GPIO_TypeDef  *GPIOx, GPIO_InitTypeDef *GPIO_Init)
{
 8001190:	e92d 4ff0 	stmdb	sp!, {r4, r5, r6, r7, r8, r9, sl, fp, lr}
 8001194:	b085      	sub	sp, #20
  for(position = 0U; position < GPIO_NUMBER; position++)
  {
    /* Get the IO position */
    ioposition = 0x01U << position;
    /* Get the current IO position */
    iocurrent = (uint32_t)(GPIO_Init->Pin) & ioposition;
 8001196:	680b      	ldr	r3, [r1, #0]
      /*--------------------- EXTI Mode Configuration ------------------------*/
      /* Configure the External Interrupt or event for the current IO */
      if((GPIO_Init->Mode & EXTI_MODE) == EXTI_MODE)
      {
        /* Enable SYSCFG Clock */
        __HAL_RCC_SYSCFG_CLK_ENABLE();
 8001198:	f8df 8168 	ldr.w	r8, [pc, #360]	; 8001304 <HAL_GPIO_Init+0x174>
        temp &= ~(0x0FU << (4U * (position & 0x03U)));
        temp |= ((uint32_t)(GPIO_GET_INDEX(GPIOx)) << (4U * (position & 0x03U)));
        SYSCFG->EXTICR[position >> 2U] = temp;

        /* Clear EXTI line configuration */
        temp = EXTI->IMR;
 800119c:	4a57      	ldr	r2, [pc, #348]	; (80012fc <HAL_GPIO_Init+0x16c>)
    iocurrent = (uint32_t)(GPIO_Init->Pin) & ioposition;
 800119e:	9301      	str	r3, [sp, #4]
    ioposition = 0x01U << position;
 80011a0:	f04f 0901 	mov.w	r9, #1
  for(position = 0U; position < GPIO_NUMBER; position++)
 80011a4:	2300      	movs	r3, #0
    iocurrent = (uint32_t)(GPIO_Init->Pin) & ioposition;
 80011a6:	9c01      	ldr	r4, [sp, #4]
    ioposition = 0x01U << position;
 80011a8:	fa09 fa03 	lsl.w	sl, r9, r3
    iocurrent = (uint32_t)(GPIO_Init->Pin) & ioposition;
 80011ac:	ea0a 0504 	and.w	r5, sl, r4
    if(iocurrent == ioposition)
 80011b0:	45aa      	cmp	sl, r5
 80011b2:	f040 8097 	bne.w	80012e4 <HAL_GPIO_Init+0x154>
      if((GPIO_Init->Mode == GPIO_MODE_AF_PP) || (GPIO_Init->Mode == GPIO_MODE_AF_OD))
 80011b6:	684c      	ldr	r4, [r1, #4]
 80011b8:	f024 0b10 	bic.w	fp, r4, #16
 80011bc:	f1bb 0f02 	cmp.w	fp, #2
 80011c0:	d114      	bne.n	80011ec <HAL_GPIO_Init+0x5c>
        temp = GPIOx->AFR[position >> 3U];
 80011c2:	ea4f 0ed3 	mov.w	lr, r3, lsr #3
 80011c6:	eb00 0e8e 	add.w	lr, r0, lr, lsl #2
        temp &= ~(0xFU << ((uint32_t)(position & 0x07U) * 4U)) ;
 80011ca:	f003 0c07 	and.w	ip, r3, #7
        temp = GPIOx->AFR[position >> 3U];
 80011ce:	f8de 6020 	ldr.w	r6, [lr, #32]
        temp &= ~(0xFU << ((uint32_t)(position & 0x07U) * 4U)) ;
 80011d2:	ea4f 0c8c 	mov.w	ip, ip, lsl #2
 80011d6:	270f      	movs	r7, #15
 80011d8:	fa07 f70c 	lsl.w	r7, r7, ip
 80011dc:	ea26 0707 	bic.w	r7, r6, r7
        temp |= ((uint32_t)(GPIO_Init->Alternate) << (((uint32_t)position & 0x07U) * 4U));
 80011e0:	690e      	ldr	r6, [r1, #16]
 80011e2:	fa06 f60c 	lsl.w	r6, r6, ip
 80011e6:	433e      	orrs	r6, r7
        GPIOx->AFR[position >> 3U] = temp;
 80011e8:	f8ce 6020 	str.w	r6, [lr, #32]
 80011ec:	ea4f 0c43 	mov.w	ip, r3, lsl #1
      temp &= ~(GPIO_MODER_MODER0 << (position * 2U));
 80011f0:	2703      	movs	r7, #3
      temp = GPIOx->MODER;
 80011f2:	6806      	ldr	r6, [r0, #0]
      temp &= ~(GPIO_MODER_MODER0 << (position * 2U));
 80011f4:	fa07 f70c 	lsl.w	r7, r7, ip
 80011f8:	43ff      	mvns	r7, r7
      temp |= ((GPIO_Init->Mode & GPIO_MODE) << (position * 2U));
 80011fa:	f004 0e03 	and.w	lr, r4, #3
      temp &= ~(GPIO_MODER_MODER0 << (position * 2U));
 80011fe:	403e      	ands	r6, r7
      temp |= ((GPIO_Init->Mode & GPIO_MODE) << (position * 2U));
 8001200:	fa0e fe0c 	lsl.w	lr, lr, ip
      if((GPIO_Init->Mode == GPIO_MODE_OUTPUT_PP) || (GPIO_Init->Mode == GPIO_MODE_AF_PP) ||
 8001204:	f10b 3bff 	add.w	fp, fp, #4294967295
      temp |= ((GPIO_Init->Mode & GPIO_MODE) << (position * 2U));
 8001208:	ea4e 0606 	orr.w	r6, lr, r6
      if((GPIO_Init->Mode == GPIO_MODE_OUTPUT_PP) || (GPIO_Init->Mode == GPIO_MODE_AF_PP) ||
 800120c:	f1bb 0f01 	cmp.w	fp, #1
      GPIOx->MODER = temp;
 8001210:	6006      	str	r6, [r0, #0]
      if((GPIO_Init->Mode == GPIO_MODE_OUTPUT_PP) || (GPIO_Init->Mode == GPIO_MODE_AF_PP) ||
 8001212:	d811      	bhi.n	8001238 <HAL_GPIO_Init+0xa8>
        temp = GPIOx->OSPEEDR; 
 8001214:	6886      	ldr	r6, [r0, #8]
        temp &= ~(GPIO_OSPEEDER_OSPEEDR0 << (position * 2U));
 8001216:	ea06 0b07 	and.w	fp, r6, r7
        temp |= (GPIO_Init->Speed << (position * 2U));
 800121a:	68ce      	ldr	r6, [r1, #12]
 800121c:	fa06 fe0c 	lsl.w	lr, r6, ip
 8001220:	ea4e 060b 	orr.w	r6, lr, fp
        GPIOx->OSPEEDR = temp;
 8001224:	6086      	str	r6, [r0, #8]
        temp = GPIOx->OTYPER;
 8001226:	6846      	ldr	r6, [r0, #4]
        temp &= ~(GPIO_OTYPER_OT_0 << position) ;
 8001228:	ea26 0a0a 	bic.w	sl, r6, sl
        temp |= (((GPIO_Init->Mode & GPIO_OUTPUT_TYPE) >> 4U) << position);
 800122c:	f3c4 1600 	ubfx	r6, r4, #4, #1
 8001230:	409e      	lsls	r6, r3
 8001232:	ea46 060a 	orr.w	r6, r6, sl
        GPIOx->OTYPER = temp;
 8001236:	6046      	str	r6, [r0, #4]
      temp = GPIOx->PUPDR;
 8001238:	68c6      	ldr	r6, [r0, #12]
      temp &= ~(GPIO_PUPDR_PUPDR0 << (position * 2U));
 800123a:	4037      	ands	r7, r6
      temp |= ((GPIO_Init->Pull) << (position * 2U));
 800123c:	688e      	ldr	r6, [r1, #8]
 800123e:	fa06 f60c 	lsl.w	r6, r6, ip
 8001242:	4337      	orrs	r7, r6
      if((GPIO_Init->Mode & EXTI_MODE) == EXTI_MODE)
 8001244:	00e6      	lsls	r6, r4, #3
      GPIOx->PUPDR = temp;
 8001246:	60c7      	str	r7, [r0, #12]
      if((GPIO_Init->Mode & EXTI_MODE) == EXTI_MODE)
 8001248:	d54c      	bpl.n	80012e4 <HAL_GPIO_Init+0x154>
        __HAL_RCC_SYSCFG_CLK_ENABLE();
 800124a:	2600      	movs	r6, #0
 800124c:	9603      	str	r6, [sp, #12]
 800124e:	f8d8 6044 	ldr.w	r6, [r8, #68]	; 0x44
 8001252:	f446 4680 	orr.w	r6, r6, #16384	; 0x4000
 8001256:	f8c8 6044 	str.w	r6, [r8, #68]	; 0x44
 800125a:	f8d8 6044 	ldr.w	r6, [r8, #68]	; 0x44
 800125e:	f023 0703 	bic.w	r7, r3, #3
 8001262:	f107 4780 	add.w	r7, r7, #1073741824	; 0x40000000
 8001266:	f406 4680 	and.w	r6, r6, #16384	; 0x4000
 800126a:	f507 379c 	add.w	r7, r7, #79872	; 0x13800
 800126e:	9603      	str	r6, [sp, #12]
        temp &= ~(0x0FU << (4U * (position & 0x03U)));
 8001270:	f003 0c03 	and.w	ip, r3, #3
        __HAL_RCC_SYSCFG_CLK_ENABLE();
 8001274:	9e03      	ldr	r6, [sp, #12]
        temp = SYSCFG->EXTICR[position >> 2U];
 8001276:	68be      	ldr	r6, [r7, #8]
        temp &= ~(0x0FU << (4U * (position & 0x03U)));
 8001278:	ea4f 0c8c 	mov.w	ip, ip, lsl #2
 800127c:	f04f 0e0f 	mov.w	lr, #15
 8001280:	fa0e fe0c 	lsl.w	lr, lr, ip
 8001284:	ea26 0e0e 	bic.w	lr, r6, lr
        temp |= ((uint32_t)(GPIO_GET_INDEX(GPIOx)) << (4U * (position & 0x03U)));
 8001288:	4e1d      	ldr	r6, [pc, #116]	; (8001300 <HAL_GPIO_Init+0x170>)
 800128a:	42b0      	cmp	r0, r6
 800128c:	d031      	beq.n	80012f2 <HAL_GPIO_Init+0x162>
 800128e:	f506 6680 	add.w	r6, r6, #1024	; 0x400
 8001292:	42b0      	cmp	r0, r6
 8001294:	d02f      	beq.n	80012f6 <HAL_GPIO_Init+0x166>
 8001296:	f506 6680 	add.w	r6, r6, #1024	; 0x400
 800129a:	42b0      	cmp	r0, r6
 800129c:	bf14      	ite	ne
 800129e:	2607      	movne	r6, #7
 80012a0:	2602      	moveq	r6, #2
 80012a2:	fa06 f60c 	lsl.w	r6, r6, ip
 80012a6:	ea46 060e 	orr.w	r6, r6, lr
        SYSCFG->EXTICR[position >> 2U] = temp;
 80012aa:	60be      	str	r6, [r7, #8]
        temp = EXTI->IMR;
 80012ac:	6816      	ldr	r6, [r2, #0]
        temp &= ~((uint32_t)iocurrent);
 80012ae:	43ef      	mvns	r7, r5
        if((GPIO_Init->Mode & GPIO_MODE_IT) == GPIO_MODE_IT)
 80012b0:	f414 3f80 	tst.w	r4, #65536	; 0x10000
        temp &= ~((uint32_t)iocurrent);
 80012b4:	bf0c      	ite	eq
 80012b6:	403e      	andeq	r6, r7
        {
          temp |= iocurrent;
 80012b8:	432e      	orrne	r6, r5
        }
        EXTI->IMR = temp;
 80012ba:	6016      	str	r6, [r2, #0]

        temp = EXTI->EMR;
 80012bc:	6856      	ldr	r6, [r2, #4]
        temp &= ~((uint32_t)iocurrent);
        if((GPIO_Init->Mode & GPIO_MODE_EVT) == GPIO_MODE_EVT)
 80012be:	f414 3f00 	tst.w	r4, #131072	; 0x20000
        temp &= ~((uint32_t)iocurrent);
 80012c2:	bf0c      	ite	eq
 80012c4:	403e      	andeq	r6, r7
        {
          temp |= iocurrent;
 80012c6:	432e      	orrne	r6, r5
        }
        EXTI->EMR = temp;
 80012c8:	6056      	str	r6, [r2, #4]

        /* Clear Rising Falling edge configuration */
        temp = EXTI->RTSR;
 80012ca:	6896      	ldr	r6, [r2, #8]
        temp &= ~((uint32_t)iocurrent);
        if((GPIO_Init->Mode & RISING_EDGE) == RISING_EDGE)
 80012cc:	f414 1f80 	tst.w	r4, #1048576	; 0x100000
        temp &= ~((uint32_t)iocurrent);
 80012d0:	bf0c      	ite	eq
 80012d2:	403e      	andeq	r6, r7
        {
          temp |= iocurrent;
 80012d4:	432e      	orrne	r6, r5
        }
        EXTI->RTSR = temp;
 80012d6:	6096      	str	r6, [r2, #8]

        temp = EXTI->FTSR;
 80012d8:	68d6      	ldr	r6, [r2, #12]
        temp &= ~((uint32_t)iocurrent);
        if((GPIO_Init->Mode & FALLING_EDGE) == FALLING_EDGE)
 80012da:	02a4      	lsls	r4, r4, #10
        temp &= ~((uint32_t)iocurrent);
 80012dc:	bf54      	ite	pl
 80012de:	403e      	andpl	r6, r7
        {
          temp |= iocurrent;
 80012e0:	432e      	orrmi	r6, r5
        }
        EXTI->FTSR = temp;
 80012e2:	60d6      	str	r6, [r2, #12]
  for(position = 0U; position < GPIO_NUMBER; position++)
 80012e4:	3301      	adds	r3, #1
 80012e6:	2b10      	cmp	r3, #16
 80012e8:	f47f af5d 	bne.w	80011a6 <HAL_GPIO_Init+0x16>
      }
    }
  }
}
 80012ec:	b005      	add	sp, #20
 80012ee:	e8bd 8ff0 	ldmia.w	sp!, {r4, r5, r6, r7, r8, r9, sl, fp, pc}
        temp |= ((uint32_t)(GPIO_GET_INDEX(GPIOx)) << (4U * (position & 0x03U)));
 80012f2:	2600      	movs	r6, #0
 80012f4:	e7d5      	b.n	80012a2 <HAL_GPIO_Init+0x112>
 80012f6:	2601      	movs	r6, #1
 80012f8:	e7d3      	b.n	80012a2 <HAL_GPIO_Init+0x112>
 80012fa:	bf00      	nop
 80012fc:	40013c00 	.word	0x40013c00
 8001300:	40020000 	.word	0x40020000
 8001304:	40023800 	.word	0x40023800

08001308 <HAL_GPIO_WritePin>:
{
  /* Check the parameters */
  assert_param(IS_GPIO_PIN(GPIO_Pin));
  assert_param(IS_GPIO_PIN_ACTION(PinState));

  if(PinState != GPIO_PIN_RESET)
 8001308:	b10a      	cbz	r2, 800130e <HAL_GPIO_WritePin+0x6>
  {
    GPIOx->BSRR = GPIO_Pin;
  }
  else
  {
    GPIOx->BSRR = (uint32_t)GPIO_Pin << 16U;
 800130a:	6181      	str	r1, [r0, #24]
 800130c:	4770      	bx	lr
 800130e:	0409      	lsls	r1, r1, #16
 8001310:	e7fb      	b.n	800130a <HAL_GPIO_WritePin+0x2>

08001312 <HAL_GPIO_EXTI_Callback>:
  * @brief  EXTI line detection callbacks.
  * @param  GPIO_Pin Specifies the pins connected EXTI line
  * @retval None
  */
__weak void HAL_GPIO_EXTI_Callback(uint16_t GPIO_Pin)
{
 8001312:	4770      	bx	lr

08001314 <HAL_GPIO_EXTI_IRQHandler>:
{
 8001314:	b508      	push	{r3, lr}
  if(__HAL_GPIO_EXTI_GET_IT(GPIO_Pin) != RESET)
 8001316:	4b04      	ldr	r3, [pc, #16]	; (8001328 <HAL_GPIO_EXTI_IRQHandler+0x14>)
 8001318:	6959      	ldr	r1, [r3, #20]
 800131a:	4201      	tst	r1, r0
 800131c:	d002      	beq.n	8001324 <HAL_GPIO_EXTI_IRQHandler+0x10>
    __HAL_GPIO_EXTI_CLEAR_IT(GPIO_Pin);
 800131e:	6158      	str	r0, [r3, #20]
    HAL_GPIO_EXTI_Callback(GPIO_Pin);
 8001320:	f7ff fff7 	bl	8001312 <HAL_GPIO_EXTI_Callback>
 8001324:	bd08      	pop	{r3, pc}
 8001326:	bf00      	nop
 8001328:	40013c00 	.word	0x40013c00

0800132c <HAL_I2C_Init>:
  * @param  hi2c pointer to a I2C_HandleTypeDef structure that contains
  *         the configuration information for I2C module
  * @retval HAL status
  */
HAL_StatusTypeDef HAL_I2C_Init(I2C_HandleTypeDef *hi2c)
{
 800132c:	b570      	push	{r4, r5, r6, lr}
  uint32_t freqrange = 0U;
  uint32_t pclk1 = 0U;

  /* Check the I2C handle allocation */
  if(hi2c == NULL)
 800132e:	4604      	mov	r4, r0
 8001330:	2800      	cmp	r0, #0
 8001332:	d062      	beq.n	80013fa <HAL_I2C_Init+0xce>
  assert_param(IS_I2C_DUAL_ADDRESS(hi2c->Init.DualAddressMode));
  assert_param(IS_I2C_OWN_ADDRESS2(hi2c->Init.OwnAddress2));
  assert_param(IS_I2C_GENERAL_CALL(hi2c->Init.GeneralCallMode));
  assert_param(IS_I2C_NO_STRETCH(hi2c->Init.NoStretchMode));

  if(hi2c->State == HAL_I2C_STATE_RESET)
 8001334:	f890 303d 	ldrb.w	r3, [r0, #61]	; 0x3d
 8001338:	f003 02ff 	and.w	r2, r3, #255	; 0xff
 800133c:	b91b      	cbnz	r3, 8001346 <HAL_I2C_Init+0x1a>
  {
    /* Allocate lock resource and initialize it */
    hi2c->Lock = HAL_UNLOCKED;
 800133e:	f880 203c 	strb.w	r2, [r0, #60]	; 0x3c
    /* Init the low level hardware : GPIO, CLOCK, NVIC */
    HAL_I2C_MspInit(hi2c);
 8001342:	f001 fdf3 	bl	8002f2c <HAL_I2C_MspInit>
  }

  hi2c->State = HAL_I2C_STATE_BUSY;

  /* Disable the selected I2C peripheral */
  __HAL_I2C_DISABLE(hi2c);
 8001346:	6822      	ldr	r2, [r4, #0]
  /* Configure I2Cx: Frequency range */
  hi2c->Instance->CR2 = freqrange;

  /*---------------------------- I2Cx TRISE Configuration --------------------*/
  /* Configure I2Cx: Rise Time */
  hi2c->Instance->TRISE = I2C_RISE_TIME(freqrange, hi2c->Init.ClockSpeed);
 8001348:	4e2d      	ldr	r6, [pc, #180]	; (8001400 <HAL_I2C_Init+0xd4>)
  freqrange = I2C_FREQRANGE(pclk1);
 800134a:	4d2e      	ldr	r5, [pc, #184]	; (8001404 <HAL_I2C_Init+0xd8>)
  hi2c->State = HAL_I2C_STATE_BUSY;
 800134c:	2324      	movs	r3, #36	; 0x24
 800134e:	f884 303d 	strb.w	r3, [r4, #61]	; 0x3d
  __HAL_I2C_DISABLE(hi2c);
 8001352:	6813      	ldr	r3, [r2, #0]
 8001354:	f023 0301 	bic.w	r3, r3, #1
 8001358:	6013      	str	r3, [r2, #0]
  pclk1 = HAL_RCC_GetPCLK1Freq();
 800135a:	f000 f91d 	bl	8001598 <HAL_RCC_GetPCLK1Freq>
  hi2c->Instance->TRISE = I2C_RISE_TIME(freqrange, hi2c->Init.ClockSpeed);
 800135e:	6863      	ldr	r3, [r4, #4]
  hi2c->Instance->CR2 = freqrange;
 8001360:	6822      	ldr	r2, [r4, #0]
  freqrange = I2C_FREQRANGE(pclk1);
 8001362:	fbb0 f5f5 	udiv	r5, r0, r5
  hi2c->Instance->TRISE = I2C_RISE_TIME(freqrange, hi2c->Init.ClockSpeed);
 8001366:	42b3      	cmp	r3, r6
 8001368:	bf84      	itt	hi
 800136a:	f44f 7196 	movhi.w	r1, #300	; 0x12c
 800136e:	4369      	mulhi	r1, r5
  hi2c->Instance->CR2 = freqrange;
 8001370:	6055      	str	r5, [r2, #4]
  hi2c->Instance->TRISE = I2C_RISE_TIME(freqrange, hi2c->Init.ClockSpeed);
 8001372:	bf91      	iteee	ls
 8001374:	1c69      	addls	r1, r5, #1
 8001376:	f44f 757a 	movhi.w	r5, #1000	; 0x3e8
 800137a:	fbb1 f1f5 	udivhi	r1, r1, r5
 800137e:	3101      	addhi	r1, #1

  /*---------------------------- I2Cx CCR Configuration ----------------------*/
  /* Configure I2Cx: Speed */
  hi2c->Instance->CCR = I2C_SPEED(pclk1, hi2c->Init.ClockSpeed, hi2c->Init.DutyCycle);
 8001380:	42b3      	cmp	r3, r6
  hi2c->Instance->TRISE = I2C_RISE_TIME(freqrange, hi2c->Init.ClockSpeed);
 8001382:	6211      	str	r1, [r2, #32]
  hi2c->Instance->CCR = I2C_SPEED(pclk1, hi2c->Init.ClockSpeed, hi2c->Init.DutyCycle);
 8001384:	d821      	bhi.n	80013ca <HAL_I2C_Init+0x9e>
 8001386:	005b      	lsls	r3, r3, #1
 8001388:	fbb0 f0f3 	udiv	r0, r0, r3
 800138c:	f3c0 030b 	ubfx	r3, r0, #0, #12
 8001390:	2b03      	cmp	r3, #3
 8001392:	bf98      	it	ls
 8001394:	2004      	movls	r0, #4

  /*---------------------------- I2Cx CR1 Configuration ----------------------*/
  /* Configure I2Cx: Generalcall and NoStretch mode */
  hi2c->Instance->CR1 = (hi2c->Init.GeneralCallMode | hi2c->Init.NoStretchMode);
 8001396:	6a21      	ldr	r1, [r4, #32]
 8001398:	69e3      	ldr	r3, [r4, #28]
  hi2c->Instance->CCR = I2C_SPEED(pclk1, hi2c->Init.ClockSpeed, hi2c->Init.DutyCycle);
 800139a:	61d0      	str	r0, [r2, #28]
  hi2c->Instance->CR1 = (hi2c->Init.GeneralCallMode | hi2c->Init.NoStretchMode);
 800139c:	430b      	orrs	r3, r1
 800139e:	6013      	str	r3, [r2, #0]

  /*---------------------------- I2Cx OAR1 Configuration ---------------------*/
  /* Configure I2Cx: Own Address1 and addressing mode */
  hi2c->Instance->OAR1 = (hi2c->Init.AddressingMode | hi2c->Init.OwnAddress1);
 80013a0:	68e1      	ldr	r1, [r4, #12]
 80013a2:	6923      	ldr	r3, [r4, #16]
 80013a4:	430b      	orrs	r3, r1
 80013a6:	6093      	str	r3, [r2, #8]

  /*---------------------------- I2Cx OAR2 Configuration ---------------------*/
  /* Configure I2Cx: Dual mode and Own Address2 */
  hi2c->Instance->OAR2 = (hi2c->Init.DualAddressMode | hi2c->Init.OwnAddress2);
 80013a8:	69a1      	ldr	r1, [r4, #24]
 80013aa:	6963      	ldr	r3, [r4, #20]
 80013ac:	430b      	orrs	r3, r1
 80013ae:	60d3      	str	r3, [r2, #12]

  /* Enable the selected I2C peripheral */
  __HAL_I2C_ENABLE(hi2c);
 80013b0:	6813      	ldr	r3, [r2, #0]
 80013b2:	f043 0301 	orr.w	r3, r3, #1
 80013b6:	6013      	str	r3, [r2, #0]

  hi2c->ErrorCode = HAL_I2C_ERROR_NONE;
 80013b8:	2000      	movs	r0, #0
  hi2c->State = HAL_I2C_STATE_READY;
 80013ba:	2320      	movs	r3, #32
  hi2c->ErrorCode = HAL_I2C_ERROR_NONE;
 80013bc:	6420      	str	r0, [r4, #64]	; 0x40
  hi2c->State = HAL_I2C_STATE_READY;
 80013be:	f884 303d 	strb.w	r3, [r4, #61]	; 0x3d
  hi2c->PreviousState = I2C_STATE_NONE;
 80013c2:	6320      	str	r0, [r4, #48]	; 0x30
  hi2c->Mode = HAL_I2C_MODE_NONE;
 80013c4:	f884 003e 	strb.w	r0, [r4, #62]	; 0x3e

  return HAL_OK;
 80013c8:	bd70      	pop	{r4, r5, r6, pc}
  hi2c->Instance->CCR = I2C_SPEED(pclk1, hi2c->Init.ClockSpeed, hi2c->Init.DutyCycle);
 80013ca:	68a1      	ldr	r1, [r4, #8]
 80013cc:	b949      	cbnz	r1, 80013e2 <HAL_I2C_Init+0xb6>
 80013ce:	eb03 0343 	add.w	r3, r3, r3, lsl #1
 80013d2:	fbb0 f0f3 	udiv	r0, r0, r3
 80013d6:	f3c0 030b 	ubfx	r3, r0, #0, #12
 80013da:	b163      	cbz	r3, 80013f6 <HAL_I2C_Init+0xca>
 80013dc:	f440 4000 	orr.w	r0, r0, #32768	; 0x8000
 80013e0:	e7d9      	b.n	8001396 <HAL_I2C_Init+0x6a>
 80013e2:	2119      	movs	r1, #25
 80013e4:	434b      	muls	r3, r1
 80013e6:	fbb0 f0f3 	udiv	r0, r0, r3
 80013ea:	f3c0 030b 	ubfx	r3, r0, #0, #12
 80013ee:	b113      	cbz	r3, 80013f6 <HAL_I2C_Init+0xca>
 80013f0:	f440 4040 	orr.w	r0, r0, #49152	; 0xc000
 80013f4:	e7cf      	b.n	8001396 <HAL_I2C_Init+0x6a>
 80013f6:	2001      	movs	r0, #1
 80013f8:	e7cd      	b.n	8001396 <HAL_I2C_Init+0x6a>
    return HAL_ERROR;
 80013fa:	2001      	movs	r0, #1
}
 80013fc:	bd70      	pop	{r4, r5, r6, pc}
 80013fe:	bf00      	nop
 8001400:	000186a0 	.word	0x000186a0
 8001404:	000f4240 	.word	0x000f4240

08001408 <HAL_RCC_GetSysClockFreq>:
{
  uint32_t pllm = 0U, pllvco = 0U, pllp = 0U;
  uint32_t sysclockfreq = 0U;

  /* Get SYSCLK source -------------------------------------------------------*/
  switch (RCC->CFGR & RCC_CFGR_SWS)
 8001408:	4913      	ldr	r1, [pc, #76]	; (8001458 <HAL_RCC_GetSysClockFreq+0x50>)
{
 800140a:	b508      	push	{r3, lr}
  switch (RCC->CFGR & RCC_CFGR_SWS)
 800140c:	688b      	ldr	r3, [r1, #8]
 800140e:	f003 030c 	and.w	r3, r3, #12
 8001412:	2b04      	cmp	r3, #4
 8001414:	d003      	beq.n	800141e <HAL_RCC_GetSysClockFreq+0x16>
 8001416:	2b08      	cmp	r3, #8
 8001418:	d003      	beq.n	8001422 <HAL_RCC_GetSysClockFreq+0x1a>
  {
    case RCC_CFGR_SWS_HSI:  /* HSI used as system clock source */
    {
      sysclockfreq = HSI_VALUE;
 800141a:	4810      	ldr	r0, [pc, #64]	; (800145c <HAL_RCC_GetSysClockFreq+0x54>)
      sysclockfreq = HSI_VALUE;
      break;
    }
  }
  return sysclockfreq;
}
 800141c:	bd08      	pop	{r3, pc}
      sysclockfreq = HSE_VALUE;
 800141e:	4810      	ldr	r0, [pc, #64]	; (8001460 <HAL_RCC_GetSysClockFreq+0x58>)
 8001420:	bd08      	pop	{r3, pc}
      pllm = RCC->PLLCFGR & RCC_PLLCFGR_PLLM;
 8001422:	684a      	ldr	r2, [r1, #4]
      if(__HAL_RCC_GET_PLL_OSCSOURCE() != RCC_PLLSOURCE_HSI)
 8001424:	684b      	ldr	r3, [r1, #4]
        pllvco = (uint32_t) ((((uint64_t) HSE_VALUE * ((uint64_t) ((RCC->PLLCFGR & RCC_PLLCFGR_PLLN) >> RCC_PLLCFGR_PLLN_Pos)))) / (uint64_t)pllm);
 8001426:	6849      	ldr	r1, [r1, #4]
      if(__HAL_RCC_GET_PLL_OSCSOURCE() != RCC_PLLSOURCE_HSI)
 8001428:	f413 0380 	ands.w	r3, r3, #4194304	; 0x400000
        pllvco = (uint32_t) ((((uint64_t) HSE_VALUE * ((uint64_t) ((RCC->PLLCFGR & RCC_PLLCFGR_PLLN) >> RCC_PLLCFGR_PLLN_Pos)))) / (uint64_t)pllm);
 800142c:	bf14      	ite	ne
 800142e:	480c      	ldrne	r0, [pc, #48]	; (8001460 <HAL_RCC_GetSysClockFreq+0x58>)
        pllvco = (uint32_t) ((((uint64_t) HSI_VALUE * ((uint64_t) ((RCC->PLLCFGR & RCC_PLLCFGR_PLLN) >> RCC_PLLCFGR_PLLN_Pos)))) / (uint64_t)pllm);
 8001430:	480a      	ldreq	r0, [pc, #40]	; (800145c <HAL_RCC_GetSysClockFreq+0x54>)
        pllvco = (uint32_t) ((((uint64_t) HSE_VALUE * ((uint64_t) ((RCC->PLLCFGR & RCC_PLLCFGR_PLLN) >> RCC_PLLCFGR_PLLN_Pos)))) / (uint64_t)pllm);
 8001432:	f3c1 1188 	ubfx	r1, r1, #6, #9
 8001436:	bf18      	it	ne
 8001438:	2300      	movne	r3, #0
      pllm = RCC->PLLCFGR & RCC_PLLCFGR_PLLM;
 800143a:	f002 023f 	and.w	r2, r2, #63	; 0x3f
        pllvco = (uint32_t) ((((uint64_t) HSI_VALUE * ((uint64_t) ((RCC->PLLCFGR & RCC_PLLCFGR_PLLN) >> RCC_PLLCFGR_PLLN_Pos)))) / (uint64_t)pllm);
 800143e:	fba1 0100 	umull	r0, r1, r1, r0
 8001442:	f7ff facb 	bl	80009dc <__aeabi_uldivmod>
      pllp = ((((RCC->PLLCFGR & RCC_PLLCFGR_PLLP) >> RCC_PLLCFGR_PLLP_Pos) + 1U) *2U);
 8001446:	4b04      	ldr	r3, [pc, #16]	; (8001458 <HAL_RCC_GetSysClockFreq+0x50>)
 8001448:	685b      	ldr	r3, [r3, #4]
 800144a:	f3c3 4301 	ubfx	r3, r3, #16, #2
 800144e:	3301      	adds	r3, #1
 8001450:	005b      	lsls	r3, r3, #1
      sysclockfreq = pllvco/pllp;
 8001452:	fbb0 f0f3 	udiv	r0, r0, r3
 8001456:	bd08      	pop	{r3, pc}
 8001458:	40023800 	.word	0x40023800
 800145c:	00f42400 	.word	0x00f42400
 8001460:	007a1200 	.word	0x007a1200

08001464 <HAL_RCC_ClockConfig>:
{
 8001464:	e92d 41f0 	stmdb	sp!, {r4, r5, r6, r7, r8, lr}
 8001468:	460d      	mov	r5, r1
  if(RCC_ClkInitStruct == NULL)
 800146a:	4604      	mov	r4, r0
 800146c:	b910      	cbnz	r0, 8001474 <HAL_RCC_ClockConfig+0x10>
    return HAL_ERROR;
 800146e:	2001      	movs	r0, #1
 8001470:	e8bd 81f0 	ldmia.w	sp!, {r4, r5, r6, r7, r8, pc}
  if(FLatency > __HAL_FLASH_GET_LATENCY())
 8001474:	4b44      	ldr	r3, [pc, #272]	; (8001588 <HAL_RCC_ClockConfig+0x124>)
 8001476:	681a      	ldr	r2, [r3, #0]
 8001478:	f002 020f 	and.w	r2, r2, #15
 800147c:	428a      	cmp	r2, r1
 800147e:	d328      	bcc.n	80014d2 <HAL_RCC_ClockConfig+0x6e>
  if(((RCC_ClkInitStruct->ClockType) & RCC_CLOCKTYPE_HCLK) == RCC_CLOCKTYPE_HCLK)
 8001480:	6821      	ldr	r1, [r4, #0]
 8001482:	078f      	lsls	r7, r1, #30
 8001484:	d42d      	bmi.n	80014e2 <HAL_RCC_ClockConfig+0x7e>
  if(((RCC_ClkInitStruct->ClockType) & RCC_CLOCKTYPE_SYSCLK) == RCC_CLOCKTYPE_SYSCLK)
 8001486:	07c8      	lsls	r0, r1, #31
 8001488:	d440      	bmi.n	800150c <HAL_RCC_ClockConfig+0xa8>
  if(FLatency < __HAL_FLASH_GET_LATENCY())
 800148a:	4b3f      	ldr	r3, [pc, #252]	; (8001588 <HAL_RCC_ClockConfig+0x124>)
 800148c:	681a      	ldr	r2, [r3, #0]
 800148e:	f002 020f 	and.w	r2, r2, #15
 8001492:	4295      	cmp	r5, r2
 8001494:	d366      	bcc.n	8001564 <HAL_RCC_ClockConfig+0x100>
  if(((RCC_ClkInitStruct->ClockType) & RCC_CLOCKTYPE_PCLK1) == RCC_CLOCKTYPE_PCLK1)
 8001496:	6822      	ldr	r2, [r4, #0]
 8001498:	0751      	lsls	r1, r2, #29
 800149a:	d46c      	bmi.n	8001576 <HAL_RCC_ClockConfig+0x112>
  if(((RCC_ClkInitStruct->ClockType) & RCC_CLOCKTYPE_PCLK2) == RCC_CLOCKTYPE_PCLK2)
 800149c:	0713      	lsls	r3, r2, #28
 800149e:	d507      	bpl.n	80014b0 <HAL_RCC_ClockConfig+0x4c>
    MODIFY_REG(RCC->CFGR, RCC_CFGR_PPRE2, ((RCC_ClkInitStruct->APB2CLKDivider) << 3U));
 80014a0:	4a3a      	ldr	r2, [pc, #232]	; (800158c <HAL_RCC_ClockConfig+0x128>)
 80014a2:	6921      	ldr	r1, [r4, #16]
 80014a4:	6893      	ldr	r3, [r2, #8]
 80014a6:	f423 4360 	bic.w	r3, r3, #57344	; 0xe000
 80014aa:	ea43 03c1 	orr.w	r3, r3, r1, lsl #3
 80014ae:	6093      	str	r3, [r2, #8]
  SystemCoreClock = HAL_RCC_GetSysClockFreq() >> AHBPrescTable[(RCC->CFGR & RCC_CFGR_HPRE)>> RCC_CFGR_HPRE_Pos];
 80014b0:	f7ff ffaa 	bl	8001408 <HAL_RCC_GetSysClockFreq>
 80014b4:	4b35      	ldr	r3, [pc, #212]	; (800158c <HAL_RCC_ClockConfig+0x128>)
 80014b6:	4a36      	ldr	r2, [pc, #216]	; (8001590 <HAL_RCC_ClockConfig+0x12c>)
 80014b8:	689b      	ldr	r3, [r3, #8]
 80014ba:	f3c3 1303 	ubfx	r3, r3, #4, #4
 80014be:	5cd3      	ldrb	r3, [r2, r3]
 80014c0:	40d8      	lsrs	r0, r3
 80014c2:	4b34      	ldr	r3, [pc, #208]	; (8001594 <HAL_RCC_ClockConfig+0x130>)
 80014c4:	6018      	str	r0, [r3, #0]
  HAL_InitTick (TICK_INT_PRIORITY);
 80014c6:	2000      	movs	r0, #0
 80014c8:	f7ff fc10 	bl	8000cec <HAL_InitTick>
  return HAL_OK;
 80014cc:	2000      	movs	r0, #0
 80014ce:	e8bd 81f0 	ldmia.w	sp!, {r4, r5, r6, r7, r8, pc}
    __HAL_FLASH_SET_LATENCY(FLatency);
 80014d2:	b2ca      	uxtb	r2, r1
 80014d4:	701a      	strb	r2, [r3, #0]
    if(__HAL_FLASH_GET_LATENCY() != FLatency)
 80014d6:	681b      	ldr	r3, [r3, #0]
 80014d8:	f003 030f 	and.w	r3, r3, #15
 80014dc:	4299      	cmp	r1, r3
 80014de:	d1c6      	bne.n	800146e <HAL_RCC_ClockConfig+0xa>
 80014e0:	e7ce      	b.n	8001480 <HAL_RCC_ClockConfig+0x1c>
 80014e2:	4b2a      	ldr	r3, [pc, #168]	; (800158c <HAL_RCC_ClockConfig+0x128>)
    if(((RCC_ClkInitStruct->ClockType) & RCC_CLOCKTYPE_PCLK1) == RCC_CLOCKTYPE_PCLK1)
 80014e4:	f011 0f04 	tst.w	r1, #4
      MODIFY_REG(RCC->CFGR, RCC_CFGR_PPRE1, RCC_HCLK_DIV16);
 80014e8:	bf1e      	ittt	ne
 80014ea:	689a      	ldrne	r2, [r3, #8]
 80014ec:	f442 52e0 	orrne.w	r2, r2, #7168	; 0x1c00
 80014f0:	609a      	strne	r2, [r3, #8]
    if(((RCC_ClkInitStruct->ClockType) & RCC_CLOCKTYPE_PCLK2) == RCC_CLOCKTYPE_PCLK2)
 80014f2:	070e      	lsls	r6, r1, #28
      MODIFY_REG(RCC->CFGR, RCC_CFGR_PPRE2, (RCC_HCLK_DIV16 << 3));
 80014f4:	bf42      	ittt	mi
 80014f6:	689a      	ldrmi	r2, [r3, #8]
 80014f8:	f442 4260 	orrmi.w	r2, r2, #57344	; 0xe000
 80014fc:	609a      	strmi	r2, [r3, #8]
    MODIFY_REG(RCC->CFGR, RCC_CFGR_HPRE, RCC_ClkInitStruct->AHBCLKDivider);
 80014fe:	689a      	ldr	r2, [r3, #8]
 8001500:	68a0      	ldr	r0, [r4, #8]
 8001502:	f022 02f0 	bic.w	r2, r2, #240	; 0xf0
 8001506:	4302      	orrs	r2, r0
 8001508:	609a      	str	r2, [r3, #8]
 800150a:	e7bc      	b.n	8001486 <HAL_RCC_ClockConfig+0x22>
    if(RCC_ClkInitStruct->SYSCLKSource == RCC_SYSCLKSOURCE_HSE)
 800150c:	6862      	ldr	r2, [r4, #4]
 800150e:	4b1f      	ldr	r3, [pc, #124]	; (800158c <HAL_RCC_ClockConfig+0x128>)
 8001510:	2a01      	cmp	r2, #1
 8001512:	d11d      	bne.n	8001550 <HAL_RCC_ClockConfig+0xec>
      if(__HAL_RCC_GET_FLAG(RCC_FLAG_HSERDY) == RESET)
 8001514:	681b      	ldr	r3, [r3, #0]
 8001516:	f413 3f00 	tst.w	r3, #131072	; 0x20000
      if(__HAL_RCC_GET_FLAG(RCC_FLAG_HSIRDY) == RESET)
 800151a:	d0a8      	beq.n	800146e <HAL_RCC_ClockConfig+0xa>
    __HAL_RCC_SYSCLK_CONFIG(RCC_ClkInitStruct->SYSCLKSource);
 800151c:	4e1b      	ldr	r6, [pc, #108]	; (800158c <HAL_RCC_ClockConfig+0x128>)
 800151e:	68b3      	ldr	r3, [r6, #8]
 8001520:	f023 0303 	bic.w	r3, r3, #3
 8001524:	4313      	orrs	r3, r2
 8001526:	60b3      	str	r3, [r6, #8]
    tickstart = HAL_GetTick();
 8001528:	f7ff fc2a 	bl	8000d80 <HAL_GetTick>
      if ((HAL_GetTick() - tickstart) > CLOCKSWITCH_TIMEOUT_VALUE)
 800152c:	f241 3888 	movw	r8, #5000	; 0x1388
    tickstart = HAL_GetTick();
 8001530:	4607      	mov	r7, r0
    while (__HAL_RCC_GET_SYSCLK_SOURCE() != (RCC_ClkInitStruct->SYSCLKSource << RCC_CFGR_SWS_Pos))
 8001532:	68b3      	ldr	r3, [r6, #8]
 8001534:	6862      	ldr	r2, [r4, #4]
 8001536:	f003 030c 	and.w	r3, r3, #12
 800153a:	ebb3 0f82 	cmp.w	r3, r2, lsl #2
 800153e:	d0a4      	beq.n	800148a <HAL_RCC_ClockConfig+0x26>
      if ((HAL_GetTick() - tickstart) > CLOCKSWITCH_TIMEOUT_VALUE)
 8001540:	f7ff fc1e 	bl	8000d80 <HAL_GetTick>
 8001544:	1bc0      	subs	r0, r0, r7
 8001546:	4540      	cmp	r0, r8
 8001548:	d9f3      	bls.n	8001532 <HAL_RCC_ClockConfig+0xce>
        return HAL_TIMEOUT;
 800154a:	2003      	movs	r0, #3
}
 800154c:	e8bd 81f0 	ldmia.w	sp!, {r4, r5, r6, r7, r8, pc}
    else if((RCC_ClkInitStruct->SYSCLKSource == RCC_SYSCLKSOURCE_PLLCLK)   ||
 8001550:	1e91      	subs	r1, r2, #2
 8001552:	2901      	cmp	r1, #1
      if(__HAL_RCC_GET_FLAG(RCC_FLAG_PLLRDY) == RESET)
 8001554:	681b      	ldr	r3, [r3, #0]
    else if((RCC_ClkInitStruct->SYSCLKSource == RCC_SYSCLKSOURCE_PLLCLK)   ||
 8001556:	d802      	bhi.n	800155e <HAL_RCC_ClockConfig+0xfa>
      if(__HAL_RCC_GET_FLAG(RCC_FLAG_PLLRDY) == RESET)
 8001558:	f013 7f00 	tst.w	r3, #33554432	; 0x2000000
 800155c:	e7dd      	b.n	800151a <HAL_RCC_ClockConfig+0xb6>
      if(__HAL_RCC_GET_FLAG(RCC_FLAG_HSIRDY) == RESET)
 800155e:	f013 0f02 	tst.w	r3, #2
 8001562:	e7da      	b.n	800151a <HAL_RCC_ClockConfig+0xb6>
    __HAL_FLASH_SET_LATENCY(FLatency);
 8001564:	b2ea      	uxtb	r2, r5
 8001566:	701a      	strb	r2, [r3, #0]
    if(__HAL_FLASH_GET_LATENCY() != FLatency)
 8001568:	681b      	ldr	r3, [r3, #0]
 800156a:	f003 030f 	and.w	r3, r3, #15
 800156e:	429d      	cmp	r5, r3
 8001570:	f47f af7d 	bne.w	800146e <HAL_RCC_ClockConfig+0xa>
 8001574:	e78f      	b.n	8001496 <HAL_RCC_ClockConfig+0x32>
    MODIFY_REG(RCC->CFGR, RCC_CFGR_PPRE1, RCC_ClkInitStruct->APB1CLKDivider);
 8001576:	4905      	ldr	r1, [pc, #20]	; (800158c <HAL_RCC_ClockConfig+0x128>)
 8001578:	68e0      	ldr	r0, [r4, #12]
 800157a:	688b      	ldr	r3, [r1, #8]
 800157c:	f423 53e0 	bic.w	r3, r3, #7168	; 0x1c00
 8001580:	4303      	orrs	r3, r0
 8001582:	608b      	str	r3, [r1, #8]
 8001584:	e78a      	b.n	800149c <HAL_RCC_ClockConfig+0x38>
 8001586:	bf00      	nop
 8001588:	40023c00 	.word	0x40023c00
 800158c:	40023800 	.word	0x40023800
 8001590:	08003572 	.word	0x08003572
 8001594:	20000024 	.word	0x20000024

08001598 <HAL_RCC_GetPCLK1Freq>:
  * @retval PCLK1 frequency
  */
uint32_t HAL_RCC_GetPCLK1Freq(void)
{
  /* Get HCLK source and Compute PCLK1 frequency ---------------------------*/
  return (HAL_RCC_GetHCLKFreq() >> APBPrescTable[(RCC->CFGR & RCC_CFGR_PPRE1)>> RCC_CFGR_PPRE1_Pos]);
 8001598:	4b04      	ldr	r3, [pc, #16]	; (80015ac <HAL_RCC_GetPCLK1Freq+0x14>)
 800159a:	4a05      	ldr	r2, [pc, #20]	; (80015b0 <HAL_RCC_GetPCLK1Freq+0x18>)
 800159c:	689b      	ldr	r3, [r3, #8]
 800159e:	f3c3 2382 	ubfx	r3, r3, #10, #3
 80015a2:	5cd3      	ldrb	r3, [r2, r3]
 80015a4:	4a03      	ldr	r2, [pc, #12]	; (80015b4 <HAL_RCC_GetPCLK1Freq+0x1c>)
 80015a6:	6810      	ldr	r0, [r2, #0]
}
 80015a8:	40d8      	lsrs	r0, r3
 80015aa:	4770      	bx	lr
 80015ac:	40023800 	.word	0x40023800
 80015b0:	08003582 	.word	0x08003582
 80015b4:	20000024 	.word	0x20000024

080015b8 <HAL_RCC_GetPCLK2Freq>:
  * @retval PCLK2 frequency
  */
uint32_t HAL_RCC_GetPCLK2Freq(void)
{
  /* Get HCLK source and Compute PCLK2 frequency ---------------------------*/
  return (HAL_RCC_GetHCLKFreq()>> APBPrescTable[(RCC->CFGR & RCC_CFGR_PPRE2)>> RCC_CFGR_PPRE2_Pos]);
 80015b8:	4b04      	ldr	r3, [pc, #16]	; (80015cc <HAL_RCC_GetPCLK2Freq+0x14>)
 80015ba:	4a05      	ldr	r2, [pc, #20]	; (80015d0 <HAL_RCC_GetPCLK2Freq+0x18>)
 80015bc:	689b      	ldr	r3, [r3, #8]
 80015be:	f3c3 3342 	ubfx	r3, r3, #13, #3
 80015c2:	5cd3      	ldrb	r3, [r2, r3]
 80015c4:	4a03      	ldr	r2, [pc, #12]	; (80015d4 <HAL_RCC_GetPCLK2Freq+0x1c>)
 80015c6:	6810      	ldr	r0, [r2, #0]
}
 80015c8:	40d8      	lsrs	r0, r3
 80015ca:	4770      	bx	lr
 80015cc:	40023800 	.word	0x40023800
 80015d0:	08003582 	.word	0x08003582
 80015d4:	20000024 	.word	0x20000024

080015d8 <HAL_RCC_OscConfig>:
  uint32_t tickstart = 0U;

  /* Check the parameters */
  assert_param(IS_RCC_OSCILLATORTYPE(RCC_OscInitStruct->OscillatorType));
  /*------------------------------- HSE Configuration ------------------------*/
  if(((RCC_OscInitStruct->OscillatorType) & RCC_OSCILLATORTYPE_HSE) == RCC_OSCILLATORTYPE_HSE)
 80015d8:	6803      	ldr	r3, [r0, #0]
{
 80015da:	e92d 41f3 	stmdb	sp!, {r0, r1, r4, r5, r6, r7, r8, lr}
  if(((RCC_OscInitStruct->OscillatorType) & RCC_OSCILLATORTYPE_HSE) == RCC_OSCILLATORTYPE_HSE)
 80015de:	07dd      	lsls	r5, r3, #31
{
 80015e0:	4604      	mov	r4, r0
  if(((RCC_OscInitStruct->OscillatorType) & RCC_OSCILLATORTYPE_HSE) == RCC_OSCILLATORTYPE_HSE)
 80015e2:	d410      	bmi.n	8001606 <HAL_RCC_OscConfig+0x2e>
        }
      }
    }
  }
  /*----------------------------- HSI Configuration --------------------------*/
  if(((RCC_OscInitStruct->OscillatorType) & RCC_OSCILLATORTYPE_HSI) == RCC_OSCILLATORTYPE_HSI)
 80015e4:	6823      	ldr	r3, [r4, #0]
 80015e6:	0798      	lsls	r0, r3, #30
 80015e8:	d45b      	bmi.n	80016a2 <HAL_RCC_OscConfig+0xca>
        }
      }
    }
  }
  /*------------------------------ LSI Configuration -------------------------*/
  if(((RCC_OscInitStruct->OscillatorType) & RCC_OSCILLATORTYPE_LSI) == RCC_OSCILLATORTYPE_LSI)
 80015ea:	6823      	ldr	r3, [r4, #0]
 80015ec:	071a      	lsls	r2, r3, #28
 80015ee:	f100 809d 	bmi.w	800172c <HAL_RCC_OscConfig+0x154>
        }
      }
    }
  }
  /*------------------------------ LSE Configuration -------------------------*/
  if(((RCC_OscInitStruct->OscillatorType) & RCC_OSCILLATORTYPE_LSE) == RCC_OSCILLATORTYPE_LSE)
 80015f2:	6823      	ldr	r3, [r4, #0]
 80015f4:	075b      	lsls	r3, r3, #29
 80015f6:	f100 80bb 	bmi.w	8001770 <HAL_RCC_OscConfig+0x198>
    }
  }
  /*-------------------------------- PLL Configuration -----------------------*/
  /* Check the parameters */
  assert_param(IS_RCC_PLL(RCC_OscInitStruct->PLL.PLLState));
  if ((RCC_OscInitStruct->PLL.PLLState) != RCC_PLL_NONE)
 80015fa:	69a2      	ldr	r2, [r4, #24]
 80015fc:	2a00      	cmp	r2, #0
 80015fe:	f040 811c 	bne.w	800183a <HAL_RCC_OscConfig+0x262>
    else
    {
      return HAL_ERROR;
    }
  }
  return HAL_OK;
 8001602:	2000      	movs	r0, #0
 8001604:	e015      	b.n	8001632 <HAL_RCC_OscConfig+0x5a>
    if((__HAL_RCC_GET_SYSCLK_SOURCE() == RCC_CFGR_SWS_HSE)                                                                     ||\
 8001606:	4ba7      	ldr	r3, [pc, #668]	; (80018a4 <HAL_RCC_OscConfig+0x2cc>)
 8001608:	689a      	ldr	r2, [r3, #8]
 800160a:	f002 020c 	and.w	r2, r2, #12
 800160e:	2a04      	cmp	r2, #4
 8001610:	d007      	beq.n	8001622 <HAL_RCC_OscConfig+0x4a>
      ((__HAL_RCC_GET_SYSCLK_SOURCE() == RCC_CFGR_SWS_PLL) && ((RCC->PLLCFGR & RCC_PLLCFGR_PLLSRC) == RCC_PLLCFGR_PLLSRC_HSE)))
 8001612:	689a      	ldr	r2, [r3, #8]
 8001614:	f002 020c 	and.w	r2, r2, #12
    if((__HAL_RCC_GET_SYSCLK_SOURCE() == RCC_CFGR_SWS_HSE)                                                                     ||\
 8001618:	2a08      	cmp	r2, #8
 800161a:	d10d      	bne.n	8001638 <HAL_RCC_OscConfig+0x60>
      ((__HAL_RCC_GET_SYSCLK_SOURCE() == RCC_CFGR_SWS_PLL) && ((RCC->PLLCFGR & RCC_PLLCFGR_PLLSRC) == RCC_PLLCFGR_PLLSRC_HSE)))
 800161c:	685b      	ldr	r3, [r3, #4]
 800161e:	0259      	lsls	r1, r3, #9
 8001620:	d50a      	bpl.n	8001638 <HAL_RCC_OscConfig+0x60>
      if((__HAL_RCC_GET_FLAG(RCC_FLAG_HSERDY) != RESET) && (RCC_OscInitStruct->HSEState == RCC_HSE_OFF))
 8001622:	4ba0      	ldr	r3, [pc, #640]	; (80018a4 <HAL_RCC_OscConfig+0x2cc>)
 8001624:	681b      	ldr	r3, [r3, #0]
 8001626:	039a      	lsls	r2, r3, #14
 8001628:	d5dc      	bpl.n	80015e4 <HAL_RCC_OscConfig+0xc>
 800162a:	6863      	ldr	r3, [r4, #4]
 800162c:	2b00      	cmp	r3, #0
 800162e:	d1d9      	bne.n	80015e4 <HAL_RCC_OscConfig+0xc>
        return HAL_ERROR;
 8001630:	2001      	movs	r0, #1
}
 8001632:	b002      	add	sp, #8
 8001634:	e8bd 81f0 	ldmia.w	sp!, {r4, r5, r6, r7, r8, pc}
      __HAL_RCC_HSE_CONFIG(RCC_OscInitStruct->HSEState);
 8001638:	6863      	ldr	r3, [r4, #4]
 800163a:	4d9a      	ldr	r5, [pc, #616]	; (80018a4 <HAL_RCC_OscConfig+0x2cc>)
 800163c:	f5b3 3f80 	cmp.w	r3, #65536	; 0x10000
 8001640:	d111      	bne.n	8001666 <HAL_RCC_OscConfig+0x8e>
 8001642:	682b      	ldr	r3, [r5, #0]
 8001644:	f443 3380 	orr.w	r3, r3, #65536	; 0x10000
 8001648:	602b      	str	r3, [r5, #0]
        tickstart = HAL_GetTick();
 800164a:	f7ff fb99 	bl	8000d80 <HAL_GetTick>
        while(__HAL_RCC_GET_FLAG(RCC_FLAG_HSERDY) == RESET)
 800164e:	4d95      	ldr	r5, [pc, #596]	; (80018a4 <HAL_RCC_OscConfig+0x2cc>)
        tickstart = HAL_GetTick();
 8001650:	4606      	mov	r6, r0
        while(__HAL_RCC_GET_FLAG(RCC_FLAG_HSERDY) == RESET)
 8001652:	682b      	ldr	r3, [r5, #0]
 8001654:	039b      	lsls	r3, r3, #14
 8001656:	d4c5      	bmi.n	80015e4 <HAL_RCC_OscConfig+0xc>
          if((HAL_GetTick() - tickstart ) > HSE_TIMEOUT_VALUE)
 8001658:	f7ff fb92 	bl	8000d80 <HAL_GetTick>
 800165c:	1b80      	subs	r0, r0, r6
 800165e:	2864      	cmp	r0, #100	; 0x64
 8001660:	d9f7      	bls.n	8001652 <HAL_RCC_OscConfig+0x7a>
            return HAL_TIMEOUT;
 8001662:	2003      	movs	r0, #3
 8001664:	e7e5      	b.n	8001632 <HAL_RCC_OscConfig+0x5a>
      __HAL_RCC_HSE_CONFIG(RCC_OscInitStruct->HSEState);
 8001666:	f5b3 2fa0 	cmp.w	r3, #327680	; 0x50000
 800166a:	d104      	bne.n	8001676 <HAL_RCC_OscConfig+0x9e>
 800166c:	682b      	ldr	r3, [r5, #0]
 800166e:	f443 2380 	orr.w	r3, r3, #262144	; 0x40000
 8001672:	602b      	str	r3, [r5, #0]
 8001674:	e7e5      	b.n	8001642 <HAL_RCC_OscConfig+0x6a>
 8001676:	682a      	ldr	r2, [r5, #0]
 8001678:	f422 3280 	bic.w	r2, r2, #65536	; 0x10000
 800167c:	602a      	str	r2, [r5, #0]
 800167e:	682a      	ldr	r2, [r5, #0]
 8001680:	f422 2280 	bic.w	r2, r2, #262144	; 0x40000
 8001684:	602a      	str	r2, [r5, #0]
      if((RCC_OscInitStruct->HSEState) != RCC_HSE_OFF)
 8001686:	2b00      	cmp	r3, #0
 8001688:	d1df      	bne.n	800164a <HAL_RCC_OscConfig+0x72>
        tickstart = HAL_GetTick();
 800168a:	f7ff fb79 	bl	8000d80 <HAL_GetTick>
 800168e:	4606      	mov	r6, r0
        while(__HAL_RCC_GET_FLAG(RCC_FLAG_HSERDY) != RESET)
 8001690:	682b      	ldr	r3, [r5, #0]
 8001692:	039f      	lsls	r7, r3, #14
 8001694:	d5a6      	bpl.n	80015e4 <HAL_RCC_OscConfig+0xc>
          if((HAL_GetTick() - tickstart ) > HSE_TIMEOUT_VALUE)
 8001696:	f7ff fb73 	bl	8000d80 <HAL_GetTick>
 800169a:	1b80      	subs	r0, r0, r6
 800169c:	2864      	cmp	r0, #100	; 0x64
 800169e:	d9f7      	bls.n	8001690 <HAL_RCC_OscConfig+0xb8>
 80016a0:	e7df      	b.n	8001662 <HAL_RCC_OscConfig+0x8a>
    if((__HAL_RCC_GET_SYSCLK_SOURCE() == RCC_CFGR_SWS_HSI)                                                                     ||\
 80016a2:	4b80      	ldr	r3, [pc, #512]	; (80018a4 <HAL_RCC_OscConfig+0x2cc>)
 80016a4:	689a      	ldr	r2, [r3, #8]
 80016a6:	f012 0f0c 	tst.w	r2, #12
 80016aa:	d007      	beq.n	80016bc <HAL_RCC_OscConfig+0xe4>
      ((__HAL_RCC_GET_SYSCLK_SOURCE() == RCC_CFGR_SWS_PLL) && ((RCC->PLLCFGR & RCC_PLLCFGR_PLLSRC) == RCC_PLLCFGR_PLLSRC_HSI)))
 80016ac:	689a      	ldr	r2, [r3, #8]
 80016ae:	f002 020c 	and.w	r2, r2, #12
    if((__HAL_RCC_GET_SYSCLK_SOURCE() == RCC_CFGR_SWS_HSI)                                                                     ||\
 80016b2:	2a08      	cmp	r2, #8
 80016b4:	d111      	bne.n	80016da <HAL_RCC_OscConfig+0x102>
      ((__HAL_RCC_GET_SYSCLK_SOURCE() == RCC_CFGR_SWS_PLL) && ((RCC->PLLCFGR & RCC_PLLCFGR_PLLSRC) == RCC_PLLCFGR_PLLSRC_HSI)))
 80016b6:	685b      	ldr	r3, [r3, #4]
 80016b8:	025e      	lsls	r6, r3, #9
 80016ba:	d40e      	bmi.n	80016da <HAL_RCC_OscConfig+0x102>
      if((__HAL_RCC_GET_FLAG(RCC_FLAG_HSIRDY) != RESET) && (RCC_OscInitStruct->HSIState != RCC_HSI_ON))
 80016bc:	4b79      	ldr	r3, [pc, #484]	; (80018a4 <HAL_RCC_OscConfig+0x2cc>)
 80016be:	681a      	ldr	r2, [r3, #0]
 80016c0:	0795      	lsls	r5, r2, #30
 80016c2:	d502      	bpl.n	80016ca <HAL_RCC_OscConfig+0xf2>
 80016c4:	68e2      	ldr	r2, [r4, #12]
 80016c6:	2a01      	cmp	r2, #1
 80016c8:	d1b2      	bne.n	8001630 <HAL_RCC_OscConfig+0x58>
        __HAL_RCC_HSI_CALIBRATIONVALUE_ADJUST(RCC_OscInitStruct->HSICalibrationValue);
 80016ca:	681a      	ldr	r2, [r3, #0]
 80016cc:	6921      	ldr	r1, [r4, #16]
 80016ce:	f022 02f8 	bic.w	r2, r2, #248	; 0xf8
 80016d2:	ea42 02c1 	orr.w	r2, r2, r1, lsl #3
 80016d6:	601a      	str	r2, [r3, #0]
      if((__HAL_RCC_GET_FLAG(RCC_FLAG_HSIRDY) != RESET) && (RCC_OscInitStruct->HSIState != RCC_HSI_ON))
 80016d8:	e787      	b.n	80015ea <HAL_RCC_OscConfig+0x12>
      if((RCC_OscInitStruct->HSIState)!= RCC_HSI_OFF)
 80016da:	68e2      	ldr	r2, [r4, #12]
 80016dc:	4b72      	ldr	r3, [pc, #456]	; (80018a8 <HAL_RCC_OscConfig+0x2d0>)
 80016de:	b1b2      	cbz	r2, 800170e <HAL_RCC_OscConfig+0x136>
        __HAL_RCC_HSI_ENABLE();
 80016e0:	2201      	movs	r2, #1
 80016e2:	601a      	str	r2, [r3, #0]
        tickstart = HAL_GetTick();
 80016e4:	f7ff fb4c 	bl	8000d80 <HAL_GetTick>
        while(__HAL_RCC_GET_FLAG(RCC_FLAG_HSIRDY) == RESET)
 80016e8:	4d6e      	ldr	r5, [pc, #440]	; (80018a4 <HAL_RCC_OscConfig+0x2cc>)
        tickstart = HAL_GetTick();
 80016ea:	4606      	mov	r6, r0
        while(__HAL_RCC_GET_FLAG(RCC_FLAG_HSIRDY) == RESET)
 80016ec:	682b      	ldr	r3, [r5, #0]
 80016ee:	0798      	lsls	r0, r3, #30
 80016f0:	d507      	bpl.n	8001702 <HAL_RCC_OscConfig+0x12a>
        __HAL_RCC_HSI_CALIBRATIONVALUE_ADJUST(RCC_OscInitStruct->HSICalibrationValue);
 80016f2:	682b      	ldr	r3, [r5, #0]
 80016f4:	6922      	ldr	r2, [r4, #16]
 80016f6:	f023 03f8 	bic.w	r3, r3, #248	; 0xf8
 80016fa:	ea43 03c2 	orr.w	r3, r3, r2, lsl #3
 80016fe:	602b      	str	r3, [r5, #0]
 8001700:	e773      	b.n	80015ea <HAL_RCC_OscConfig+0x12>
          if((HAL_GetTick() - tickstart ) > HSI_TIMEOUT_VALUE)
 8001702:	f7ff fb3d 	bl	8000d80 <HAL_GetTick>
 8001706:	1b80      	subs	r0, r0, r6
 8001708:	2802      	cmp	r0, #2
 800170a:	d9ef      	bls.n	80016ec <HAL_RCC_OscConfig+0x114>
 800170c:	e7a9      	b.n	8001662 <HAL_RCC_OscConfig+0x8a>
        __HAL_RCC_HSI_DISABLE();
 800170e:	601a      	str	r2, [r3, #0]
        tickstart = HAL_GetTick();
 8001710:	f7ff fb36 	bl	8000d80 <HAL_GetTick>
        while(__HAL_RCC_GET_FLAG(RCC_FLAG_HSIRDY) != RESET)
 8001714:	4d63      	ldr	r5, [pc, #396]	; (80018a4 <HAL_RCC_OscConfig+0x2cc>)
        tickstart = HAL_GetTick();
 8001716:	4606      	mov	r6, r0
        while(__HAL_RCC_GET_FLAG(RCC_FLAG_HSIRDY) != RESET)
 8001718:	682b      	ldr	r3, [r5, #0]
 800171a:	0799      	lsls	r1, r3, #30
 800171c:	f57f af65 	bpl.w	80015ea <HAL_RCC_OscConfig+0x12>
          if((HAL_GetTick() - tickstart ) > HSI_TIMEOUT_VALUE)
 8001720:	f7ff fb2e 	bl	8000d80 <HAL_GetTick>
 8001724:	1b80      	subs	r0, r0, r6
 8001726:	2802      	cmp	r0, #2
 8001728:	d9f6      	bls.n	8001718 <HAL_RCC_OscConfig+0x140>
 800172a:	e79a      	b.n	8001662 <HAL_RCC_OscConfig+0x8a>
    if((RCC_OscInitStruct->LSIState)!= RCC_LSI_OFF)
 800172c:	6962      	ldr	r2, [r4, #20]
 800172e:	4b5f      	ldr	r3, [pc, #380]	; (80018ac <HAL_RCC_OscConfig+0x2d4>)
 8001730:	b17a      	cbz	r2, 8001752 <HAL_RCC_OscConfig+0x17a>
      __HAL_RCC_LSI_ENABLE();
 8001732:	2201      	movs	r2, #1
 8001734:	601a      	str	r2, [r3, #0]
      tickstart = HAL_GetTick();
 8001736:	f7ff fb23 	bl	8000d80 <HAL_GetTick>
      while(__HAL_RCC_GET_FLAG(RCC_FLAG_LSIRDY) == RESET)
 800173a:	4d5a      	ldr	r5, [pc, #360]	; (80018a4 <HAL_RCC_OscConfig+0x2cc>)
      tickstart = HAL_GetTick();
 800173c:	4606      	mov	r6, r0
      while(__HAL_RCC_GET_FLAG(RCC_FLAG_LSIRDY) == RESET)
 800173e:	6f6b      	ldr	r3, [r5, #116]	; 0x74
 8001740:	079f      	lsls	r7, r3, #30
 8001742:	f53f af56 	bmi.w	80015f2 <HAL_RCC_OscConfig+0x1a>
        if((HAL_GetTick() - tickstart ) > LSI_TIMEOUT_VALUE)
 8001746:	f7ff fb1b 	bl	8000d80 <HAL_GetTick>
 800174a:	1b80      	subs	r0, r0, r6
 800174c:	2802      	cmp	r0, #2
 800174e:	d9f6      	bls.n	800173e <HAL_RCC_OscConfig+0x166>
 8001750:	e787      	b.n	8001662 <HAL_RCC_OscConfig+0x8a>
      __HAL_RCC_LSI_DISABLE();
 8001752:	601a      	str	r2, [r3, #0]
      tickstart = HAL_GetTick();
 8001754:	f7ff fb14 	bl	8000d80 <HAL_GetTick>
      while(__HAL_RCC_GET_FLAG(RCC_FLAG_LSIRDY) != RESET)
 8001758:	4d52      	ldr	r5, [pc, #328]	; (80018a4 <HAL_RCC_OscConfig+0x2cc>)
      tickstart = HAL_GetTick();
 800175a:	4606      	mov	r6, r0
      while(__HAL_RCC_GET_FLAG(RCC_FLAG_LSIRDY) != RESET)
 800175c:	6f6b      	ldr	r3, [r5, #116]	; 0x74
 800175e:	0798      	lsls	r0, r3, #30
 8001760:	f57f af47 	bpl.w	80015f2 <HAL_RCC_OscConfig+0x1a>
        if((HAL_GetTick() - tickstart ) > LSI_TIMEOUT_VALUE)
 8001764:	f7ff fb0c 	bl	8000d80 <HAL_GetTick>
 8001768:	1b80      	subs	r0, r0, r6
 800176a:	2802      	cmp	r0, #2
 800176c:	d9f6      	bls.n	800175c <HAL_RCC_OscConfig+0x184>
 800176e:	e778      	b.n	8001662 <HAL_RCC_OscConfig+0x8a>
    if(__HAL_RCC_PWR_IS_CLK_DISABLED())
 8001770:	4b4c      	ldr	r3, [pc, #304]	; (80018a4 <HAL_RCC_OscConfig+0x2cc>)
 8001772:	6c1a      	ldr	r2, [r3, #64]	; 0x40
 8001774:	f012 5280 	ands.w	r2, r2, #268435456	; 0x10000000
 8001778:	d128      	bne.n	80017cc <HAL_RCC_OscConfig+0x1f4>
      __HAL_RCC_PWR_CLK_ENABLE();
 800177a:	9201      	str	r2, [sp, #4]
 800177c:	6c1a      	ldr	r2, [r3, #64]	; 0x40
 800177e:	f042 5280 	orr.w	r2, r2, #268435456	; 0x10000000
 8001782:	641a      	str	r2, [r3, #64]	; 0x40
 8001784:	6c1b      	ldr	r3, [r3, #64]	; 0x40
 8001786:	f003 5380 	and.w	r3, r3, #268435456	; 0x10000000
 800178a:	9301      	str	r3, [sp, #4]
 800178c:	9b01      	ldr	r3, [sp, #4]
      pwrclkchanged = SET;
 800178e:	2601      	movs	r6, #1
    if(HAL_IS_BIT_CLR(PWR->CR, PWR_CR_DBP))
 8001790:	4d47      	ldr	r5, [pc, #284]	; (80018b0 <HAL_RCC_OscConfig+0x2d8>)
 8001792:	682b      	ldr	r3, [r5, #0]
 8001794:	05d9      	lsls	r1, r3, #23
 8001796:	d51b      	bpl.n	80017d0 <HAL_RCC_OscConfig+0x1f8>
    __HAL_RCC_LSE_CONFIG(RCC_OscInitStruct->LSEState);
 8001798:	68a3      	ldr	r3, [r4, #8]
 800179a:	4d42      	ldr	r5, [pc, #264]	; (80018a4 <HAL_RCC_OscConfig+0x2cc>)
 800179c:	2b01      	cmp	r3, #1
 800179e:	d127      	bne.n	80017f0 <HAL_RCC_OscConfig+0x218>
 80017a0:	6f2b      	ldr	r3, [r5, #112]	; 0x70
 80017a2:	f043 0301 	orr.w	r3, r3, #1
 80017a6:	672b      	str	r3, [r5, #112]	; 0x70
      tickstart = HAL_GetTick();
 80017a8:	f7ff faea 	bl	8000d80 <HAL_GetTick>
      while(__HAL_RCC_GET_FLAG(RCC_FLAG_LSERDY) == RESET)
 80017ac:	4d3d      	ldr	r5, [pc, #244]	; (80018a4 <HAL_RCC_OscConfig+0x2cc>)
      tickstart = HAL_GetTick();
 80017ae:	4607      	mov	r7, r0
        if((HAL_GetTick() - tickstart ) > RCC_LSE_TIMEOUT_VALUE)
 80017b0:	f241 3888 	movw	r8, #5000	; 0x1388
      while(__HAL_RCC_GET_FLAG(RCC_FLAG_LSERDY) == RESET)
 80017b4:	6f2b      	ldr	r3, [r5, #112]	; 0x70
 80017b6:	079b      	lsls	r3, r3, #30
 80017b8:	d539      	bpl.n	800182e <HAL_RCC_OscConfig+0x256>
    if(pwrclkchanged == SET)
 80017ba:	2e00      	cmp	r6, #0
 80017bc:	f43f af1d 	beq.w	80015fa <HAL_RCC_OscConfig+0x22>
      __HAL_RCC_PWR_CLK_DISABLE();
 80017c0:	4a38      	ldr	r2, [pc, #224]	; (80018a4 <HAL_RCC_OscConfig+0x2cc>)
 80017c2:	6c13      	ldr	r3, [r2, #64]	; 0x40
 80017c4:	f023 5380 	bic.w	r3, r3, #268435456	; 0x10000000
 80017c8:	6413      	str	r3, [r2, #64]	; 0x40
 80017ca:	e716      	b.n	80015fa <HAL_RCC_OscConfig+0x22>
    FlagStatus       pwrclkchanged = RESET;
 80017cc:	2600      	movs	r6, #0
 80017ce:	e7df      	b.n	8001790 <HAL_RCC_OscConfig+0x1b8>
      SET_BIT(PWR->CR, PWR_CR_DBP);
 80017d0:	682b      	ldr	r3, [r5, #0]
 80017d2:	f443 7380 	orr.w	r3, r3, #256	; 0x100
 80017d6:	602b      	str	r3, [r5, #0]
      tickstart = HAL_GetTick();
 80017d8:	f7ff fad2 	bl	8000d80 <HAL_GetTick>
 80017dc:	4607      	mov	r7, r0
      while(HAL_IS_BIT_CLR(PWR->CR, PWR_CR_DBP))
 80017de:	682b      	ldr	r3, [r5, #0]
 80017e0:	05da      	lsls	r2, r3, #23
 80017e2:	d4d9      	bmi.n	8001798 <HAL_RCC_OscConfig+0x1c0>
        if((HAL_GetTick() - tickstart) > RCC_DBP_TIMEOUT_VALUE)
 80017e4:	f7ff facc 	bl	8000d80 <HAL_GetTick>
 80017e8:	1bc0      	subs	r0, r0, r7
 80017ea:	2802      	cmp	r0, #2
 80017ec:	d9f7      	bls.n	80017de <HAL_RCC_OscConfig+0x206>
 80017ee:	e738      	b.n	8001662 <HAL_RCC_OscConfig+0x8a>
    __HAL_RCC_LSE_CONFIG(RCC_OscInitStruct->LSEState);
 80017f0:	2b05      	cmp	r3, #5
 80017f2:	d104      	bne.n	80017fe <HAL_RCC_OscConfig+0x226>
 80017f4:	6f2b      	ldr	r3, [r5, #112]	; 0x70
 80017f6:	f043 0304 	orr.w	r3, r3, #4
 80017fa:	672b      	str	r3, [r5, #112]	; 0x70
 80017fc:	e7d0      	b.n	80017a0 <HAL_RCC_OscConfig+0x1c8>
 80017fe:	6f2a      	ldr	r2, [r5, #112]	; 0x70
 8001800:	f022 0201 	bic.w	r2, r2, #1
 8001804:	672a      	str	r2, [r5, #112]	; 0x70
 8001806:	6f2a      	ldr	r2, [r5, #112]	; 0x70
 8001808:	f022 0204 	bic.w	r2, r2, #4
 800180c:	672a      	str	r2, [r5, #112]	; 0x70
    if((RCC_OscInitStruct->LSEState) != RCC_LSE_OFF)
 800180e:	2b00      	cmp	r3, #0
 8001810:	d1ca      	bne.n	80017a8 <HAL_RCC_OscConfig+0x1d0>
      tickstart = HAL_GetTick();
 8001812:	f7ff fab5 	bl	8000d80 <HAL_GetTick>
        if((HAL_GetTick() - tickstart ) > RCC_LSE_TIMEOUT_VALUE)
 8001816:	f241 3888 	movw	r8, #5000	; 0x1388
      tickstart = HAL_GetTick();
 800181a:	4607      	mov	r7, r0
      while(__HAL_RCC_GET_FLAG(RCC_FLAG_LSERDY) != RESET)
 800181c:	6f2b      	ldr	r3, [r5, #112]	; 0x70
 800181e:	0798      	lsls	r0, r3, #30
 8001820:	d5cb      	bpl.n	80017ba <HAL_RCC_OscConfig+0x1e2>
        if((HAL_GetTick() - tickstart ) > RCC_LSE_TIMEOUT_VALUE)
 8001822:	f7ff faad 	bl	8000d80 <HAL_GetTick>
 8001826:	1bc0      	subs	r0, r0, r7
 8001828:	4540      	cmp	r0, r8
 800182a:	d9f7      	bls.n	800181c <HAL_RCC_OscConfig+0x244>
 800182c:	e719      	b.n	8001662 <HAL_RCC_OscConfig+0x8a>
        if((HAL_GetTick() - tickstart ) > RCC_LSE_TIMEOUT_VALUE)
 800182e:	f7ff faa7 	bl	8000d80 <HAL_GetTick>
 8001832:	1bc0      	subs	r0, r0, r7
 8001834:	4540      	cmp	r0, r8
 8001836:	d9bd      	bls.n	80017b4 <HAL_RCC_OscConfig+0x1dc>
 8001838:	e713      	b.n	8001662 <HAL_RCC_OscConfig+0x8a>
    if(__HAL_RCC_GET_SYSCLK_SOURCE() != RCC_CFGR_SWS_PLL)
 800183a:	4d1a      	ldr	r5, [pc, #104]	; (80018a4 <HAL_RCC_OscConfig+0x2cc>)
 800183c:	68ab      	ldr	r3, [r5, #8]
 800183e:	f003 030c 	and.w	r3, r3, #12
 8001842:	2b08      	cmp	r3, #8
 8001844:	f43f aef4 	beq.w	8001630 <HAL_RCC_OscConfig+0x58>
 8001848:	4e1a      	ldr	r6, [pc, #104]	; (80018b4 <HAL_RCC_OscConfig+0x2dc>)
 800184a:	2300      	movs	r3, #0
      if((RCC_OscInitStruct->PLL.PLLState) == RCC_PLL_ON)
 800184c:	2a02      	cmp	r2, #2
        __HAL_RCC_PLL_DISABLE();
 800184e:	6033      	str	r3, [r6, #0]
      if((RCC_OscInitStruct->PLL.PLLState) == RCC_PLL_ON)
 8001850:	d138      	bne.n	80018c4 <HAL_RCC_OscConfig+0x2ec>
        tickstart = HAL_GetTick();
 8001852:	f7ff fa95 	bl	8000d80 <HAL_GetTick>
 8001856:	4607      	mov	r7, r0
        while(__HAL_RCC_GET_FLAG(RCC_FLAG_PLLRDY) != RESET)
 8001858:	682b      	ldr	r3, [r5, #0]
 800185a:	0199      	lsls	r1, r3, #6
 800185c:	d42c      	bmi.n	80018b8 <HAL_RCC_OscConfig+0x2e0>
        __HAL_RCC_PLL_CONFIG(RCC_OscInitStruct->PLL.PLLSource,
 800185e:	6a22      	ldr	r2, [r4, #32]
 8001860:	69e3      	ldr	r3, [r4, #28]
 8001862:	4313      	orrs	r3, r2
 8001864:	6a62      	ldr	r2, [r4, #36]	; 0x24
 8001866:	ea43 1382 	orr.w	r3, r3, r2, lsl #6
 800186a:	6ae2      	ldr	r2, [r4, #44]	; 0x2c
 800186c:	ea43 6302 	orr.w	r3, r3, r2, lsl #24
 8001870:	6b22      	ldr	r2, [r4, #48]	; 0x30
 8001872:	ea43 7302 	orr.w	r3, r3, r2, lsl #28
 8001876:	6aa2      	ldr	r2, [r4, #40]	; 0x28
        while(__HAL_RCC_GET_FLAG(RCC_FLAG_PLLRDY) == RESET)
 8001878:	4c0a      	ldr	r4, [pc, #40]	; (80018a4 <HAL_RCC_OscConfig+0x2cc>)
        __HAL_RCC_PLL_CONFIG(RCC_OscInitStruct->PLL.PLLSource,
 800187a:	0852      	lsrs	r2, r2, #1
 800187c:	3a01      	subs	r2, #1
 800187e:	ea43 4302 	orr.w	r3, r3, r2, lsl #16
 8001882:	606b      	str	r3, [r5, #4]
        __HAL_RCC_PLL_ENABLE();
 8001884:	2301      	movs	r3, #1
 8001886:	6033      	str	r3, [r6, #0]
        tickstart = HAL_GetTick();
 8001888:	f7ff fa7a 	bl	8000d80 <HAL_GetTick>
 800188c:	4605      	mov	r5, r0
        while(__HAL_RCC_GET_FLAG(RCC_FLAG_PLLRDY) == RESET)
 800188e:	6823      	ldr	r3, [r4, #0]
 8001890:	019a      	lsls	r2, r3, #6
 8001892:	f53f aeb6 	bmi.w	8001602 <HAL_RCC_OscConfig+0x2a>
          if((HAL_GetTick() - tickstart ) > PLL_TIMEOUT_VALUE)
 8001896:	f7ff fa73 	bl	8000d80 <HAL_GetTick>
 800189a:	1b40      	subs	r0, r0, r5
 800189c:	2802      	cmp	r0, #2
 800189e:	d9f6      	bls.n	800188e <HAL_RCC_OscConfig+0x2b6>
 80018a0:	e6df      	b.n	8001662 <HAL_RCC_OscConfig+0x8a>
 80018a2:	bf00      	nop
 80018a4:	40023800 	.word	0x40023800
 80018a8:	42470000 	.word	0x42470000
 80018ac:	42470e80 	.word	0x42470e80
 80018b0:	40007000 	.word	0x40007000
 80018b4:	42470060 	.word	0x42470060
          if((HAL_GetTick() - tickstart ) > PLL_TIMEOUT_VALUE)
 80018b8:	f7ff fa62 	bl	8000d80 <HAL_GetTick>
 80018bc:	1bc0      	subs	r0, r0, r7
 80018be:	2802      	cmp	r0, #2
 80018c0:	d9ca      	bls.n	8001858 <HAL_RCC_OscConfig+0x280>
 80018c2:	e6ce      	b.n	8001662 <HAL_RCC_OscConfig+0x8a>
        tickstart = HAL_GetTick();
 80018c4:	f7ff fa5c 	bl	8000d80 <HAL_GetTick>
 80018c8:	4604      	mov	r4, r0
        while(__HAL_RCC_GET_FLAG(RCC_FLAG_PLLRDY) != RESET)
 80018ca:	682b      	ldr	r3, [r5, #0]
 80018cc:	019b      	lsls	r3, r3, #6
 80018ce:	f57f ae98 	bpl.w	8001602 <HAL_RCC_OscConfig+0x2a>
          if((HAL_GetTick() - tickstart ) > PLL_TIMEOUT_VALUE)
 80018d2:	f7ff fa55 	bl	8000d80 <HAL_GetTick>
 80018d6:	1b00      	subs	r0, r0, r4
 80018d8:	2802      	cmp	r0, #2
 80018da:	d9f6      	bls.n	80018ca <HAL_RCC_OscConfig+0x2f2>
 80018dc:	e6c1      	b.n	8001662 <HAL_RCC_OscConfig+0x8a>
 80018de:	bf00      	nop

080018e0 <TIM_OC1_SetConfig>:
  uint32_t tmpccmrx = 0U;
  uint32_t tmpccer = 0U;
  uint32_t tmpcr2 = 0U;  

  /* Disable the Channel 1: Reset the CC1E Bit */
  TIMx->CCER &= ~TIM_CCER_CC1E;
 80018e0:	6a03      	ldr	r3, [r0, #32]
 80018e2:	f023 0301 	bic.w	r3, r3, #1
 80018e6:	6203      	str	r3, [r0, #32]
  
  /* Get the TIMx CCER register value */
  tmpccer = TIMx->CCER;
 80018e8:	6a03      	ldr	r3, [r0, #32]
{
 80018ea:	b570      	push	{r4, r5, r6, lr}
  /* Get the TIMx CR2 register value */
  tmpcr2 = TIMx->CR2;
 80018ec:	6844      	ldr	r4, [r0, #4]
  
  /* Get the TIMx CCMR1 register value */
  tmpccmrx = TIMx->CCMR1;
 80018ee:	6982      	ldr	r2, [r0, #24]
    
  /* Reset the Output Compare Mode Bits */
  tmpccmrx &= ~TIM_CCMR1_OC1M;
  tmpccmrx &= ~TIM_CCMR1_CC1S;
  /* Select the Output Compare Mode */
  tmpccmrx |= OC_Config->OCMode;
 80018f0:	680d      	ldr	r5, [r1, #0]
  tmpccmrx &= ~TIM_CCMR1_CC1S;
 80018f2:	f022 0273 	bic.w	r2, r2, #115	; 0x73
  tmpccmrx |= OC_Config->OCMode;
 80018f6:	432a      	orrs	r2, r5
  
  /* Reset the Output Polarity level */
  tmpccer &= ~TIM_CCER_CC1P;
  /* Set the Output Compare Polarity */
  tmpccer |= OC_Config->OCPolarity;
 80018f8:	688d      	ldr	r5, [r1, #8]
  tmpccer &= ~TIM_CCER_CC1P;
 80018fa:	f023 0302 	bic.w	r3, r3, #2
  tmpccer |= OC_Config->OCPolarity;
 80018fe:	432b      	orrs	r3, r5

    
  if(IS_TIM_ADVANCED_INSTANCE(TIMx) != RESET)
 8001900:	4d0a      	ldr	r5, [pc, #40]	; (800192c <TIM_OC1_SetConfig+0x4c>)
 8001902:	42a8      	cmp	r0, r5
 8001904:	d10b      	bne.n	800191e <TIM_OC1_SetConfig+0x3e>
  {   
    /* Reset the Output N Polarity level */
    tmpccer &= ~TIM_CCER_CC1NP;
    /* Set the Output N Polarity */
    tmpccer |= OC_Config->OCNPolarity;
 8001906:	68cd      	ldr	r5, [r1, #12]
    tmpcr2 &= ~TIM_CR2_OIS1;
    tmpcr2 &= ~TIM_CR2_OIS1N;
    /* Set the Output Idle state */
    tmpcr2 |= OC_Config->OCIdleState;
    /* Set the Output N Idle state */
    tmpcr2 |= OC_Config->OCNIdleState;
 8001908:	698e      	ldr	r6, [r1, #24]
    tmpccer &= ~TIM_CCER_CC1NP;
 800190a:	f023 0308 	bic.w	r3, r3, #8
    tmpccer |= OC_Config->OCNPolarity;
 800190e:	432b      	orrs	r3, r5
    tmpcr2 |= OC_Config->OCNIdleState;
 8001910:	694d      	ldr	r5, [r1, #20]
    tmpcr2 &= ~TIM_CR2_OIS1N;
 8001912:	f424 7440 	bic.w	r4, r4, #768	; 0x300
    tmpcr2 |= OC_Config->OCNIdleState;
 8001916:	4335      	orrs	r5, r6
    tmpccer &= ~TIM_CCER_CC1NE;
 8001918:	f023 0304 	bic.w	r3, r3, #4
    tmpcr2 |= OC_Config->OCNIdleState;
 800191c:	432c      	orrs	r4, r5
  }
  /* Write to TIMx CR2 */
  TIMx->CR2 = tmpcr2;
 800191e:	6044      	str	r4, [r0, #4]
  
  /* Write to TIMx CCMR1 */
  TIMx->CCMR1 = tmpccmrx;
 8001920:	6182      	str	r2, [r0, #24]
  
  /* Set the Capture Compare Register value */
  TIMx->CCR1 = OC_Config->Pulse;
 8001922:	684a      	ldr	r2, [r1, #4]
 8001924:	6342      	str	r2, [r0, #52]	; 0x34
  
  /* Write to TIMx CCER */
  TIMx->CCER = tmpccer;  
 8001926:	6203      	str	r3, [r0, #32]
 8001928:	bd70      	pop	{r4, r5, r6, pc}
 800192a:	bf00      	nop
 800192c:	40010000 	.word	0x40010000

08001930 <TIM_OC3_SetConfig>:
  uint32_t tmpccmrx = 0U;
  uint32_t tmpccer = 0U;
  uint32_t tmpcr2 = 0U;   

  /* Disable the Channel 3: Reset the CC2E Bit */
  TIMx->CCER &= ~TIM_CCER_CC3E;
 8001930:	6a03      	ldr	r3, [r0, #32]
 8001932:	f423 7380 	bic.w	r3, r3, #256	; 0x100
 8001936:	6203      	str	r3, [r0, #32]
  
  /* Get the TIMx CCER register value */
  tmpccer = TIMx->CCER;
 8001938:	6a03      	ldr	r3, [r0, #32]
{
 800193a:	b570      	push	{r4, r5, r6, lr}
  /* Get the TIMx CR2 register value */
  tmpcr2 = TIMx->CR2;
 800193c:	6844      	ldr	r4, [r0, #4]
  
  /* Get the TIMx CCMR2 register value */
  tmpccmrx = TIMx->CCMR2;
 800193e:	69c2      	ldr	r2, [r0, #28]
    
  /* Reset the Output Compare mode and Capture/Compare selection Bits */
  tmpccmrx &= ~TIM_CCMR2_OC3M;
  tmpccmrx &= ~TIM_CCMR2_CC3S;  
  /* Select the Output Compare Mode */
  tmpccmrx |= OC_Config->OCMode;
 8001940:	680d      	ldr	r5, [r1, #0]
  tmpccmrx &= ~TIM_CCMR2_CC3S;  
 8001942:	f022 0273 	bic.w	r2, r2, #115	; 0x73
  tmpccmrx |= OC_Config->OCMode;
 8001946:	432a      	orrs	r2, r5
  
  /* Reset the Output Polarity level */
  tmpccer &= ~TIM_CCER_CC3P;
  /* Set the Output Compare Polarity */
  tmpccer |= (OC_Config->OCPolarity << 8U);
 8001948:	688d      	ldr	r5, [r1, #8]
  tmpccer &= ~TIM_CCER_CC3P;
 800194a:	f423 7300 	bic.w	r3, r3, #512	; 0x200
  tmpccer |= (OC_Config->OCPolarity << 8U);
 800194e:	ea43 2305 	orr.w	r3, r3, r5, lsl #8
    
  if(IS_TIM_ADVANCED_INSTANCE(TIMx) != RESET)
 8001952:	4d0b      	ldr	r5, [pc, #44]	; (8001980 <TIM_OC3_SetConfig+0x50>)
 8001954:	42a8      	cmp	r0, r5
 8001956:	d10d      	bne.n	8001974 <TIM_OC3_SetConfig+0x44>
    assert_param(IS_TIM_OCIDLE_STATE(OC_Config->OCIdleState));
    
    /* Reset the Output N Polarity level */
    tmpccer &= ~TIM_CCER_CC3NP;
    /* Set the Output N Polarity */
    tmpccer |= (OC_Config->OCNPolarity << 8U);
 8001958:	68cd      	ldr	r5, [r1, #12]
    tmpcr2 &= ~TIM_CR2_OIS3;
    tmpcr2 &= ~TIM_CR2_OIS3N;
    /* Set the Output Idle state */
    tmpcr2 |= (OC_Config->OCIdleState << 4U);
    /* Set the Output N Idle state */
    tmpcr2 |= (OC_Config->OCNIdleState << 4U);
 800195a:	698e      	ldr	r6, [r1, #24]
    tmpccer &= ~TIM_CCER_CC3NP;
 800195c:	f423 6300 	bic.w	r3, r3, #2048	; 0x800
    tmpccer |= (OC_Config->OCNPolarity << 8U);
 8001960:	ea43 2305 	orr.w	r3, r3, r5, lsl #8
    tmpcr2 |= (OC_Config->OCIdleState << 4U);
 8001964:	694d      	ldr	r5, [r1, #20]
    tmpcr2 &= ~TIM_CR2_OIS3N;
 8001966:	f424 5440 	bic.w	r4, r4, #12288	; 0x3000
    tmpcr2 |= (OC_Config->OCNIdleState << 4U);
 800196a:	4335      	orrs	r5, r6
    tmpccer &= ~TIM_CCER_CC3NE;
 800196c:	f423 6380 	bic.w	r3, r3, #1024	; 0x400
    tmpcr2 |= (OC_Config->OCNIdleState << 4U);
 8001970:	ea44 1405 	orr.w	r4, r4, r5, lsl #4
  }
  /* Write to TIMx CR2 */
  TIMx->CR2 = tmpcr2;
 8001974:	6044      	str	r4, [r0, #4]
  
  /* Write to TIMx CCMR2 */
  TIMx->CCMR2 = tmpccmrx;
 8001976:	61c2      	str	r2, [r0, #28]
  
  /* Set the Capture Compare Register value */
  TIMx->CCR3 = OC_Config->Pulse;
 8001978:	684a      	ldr	r2, [r1, #4]
 800197a:	63c2      	str	r2, [r0, #60]	; 0x3c
  
  /* Write to TIMx CCER */
  TIMx->CCER = tmpccer;
 800197c:	6203      	str	r3, [r0, #32]
 800197e:	bd70      	pop	{r4, r5, r6, pc}
 8001980:	40010000 	.word	0x40010000

08001984 <TIM_OC4_SetConfig>:
  uint32_t tmpccmrx = 0U;
  uint32_t tmpccer = 0U;
  uint32_t tmpcr2 = 0U;

  /* Disable the Channel 4: Reset the CC4E Bit */
  TIMx->CCER &= ~TIM_CCER_CC4E;
 8001984:	6a03      	ldr	r3, [r0, #32]
 8001986:	f423 5380 	bic.w	r3, r3, #4096	; 0x1000
 800198a:	6203      	str	r3, [r0, #32]
  
  /* Get the TIMx CCER register value */
  tmpccer = TIMx->CCER;
 800198c:	6a03      	ldr	r3, [r0, #32]
{
 800198e:	b530      	push	{r4, r5, lr}
  /* Get the TIMx CR2 register value */
  tmpcr2 = TIMx->CR2;
 8001990:	6844      	ldr	r4, [r0, #4]
  
  /* Get the TIMx CCMR2 register value */
  tmpccmrx = TIMx->CCMR2;
 8001992:	69c2      	ldr	r2, [r0, #28]
  /* Reset the Output Compare mode and Capture/Compare selection Bits */
  tmpccmrx &= ~TIM_CCMR2_OC4M;
  tmpccmrx &= ~TIM_CCMR2_CC4S;
  
  /* Select the Output Compare Mode */
  tmpccmrx |= (OC_Config->OCMode << 8U);
 8001994:	680d      	ldr	r5, [r1, #0]
  tmpccmrx &= ~TIM_CCMR2_CC4S;
 8001996:	f422 42e6 	bic.w	r2, r2, #29440	; 0x7300
  tmpccmrx |= (OC_Config->OCMode << 8U);
 800199a:	ea42 2205 	orr.w	r2, r2, r5, lsl #8
  
  /* Reset the Output Polarity level */
  tmpccer &= ~TIM_CCER_CC4P;
  /* Set the Output Compare Polarity */
  tmpccer |= (OC_Config->OCPolarity << 12U);
 800199e:	688d      	ldr	r5, [r1, #8]
  tmpccer &= ~TIM_CCER_CC4P;
 80019a0:	f423 5300 	bic.w	r3, r3, #8192	; 0x2000
  tmpccer |= (OC_Config->OCPolarity << 12U);
 80019a4:	ea43 3305 	orr.w	r3, r3, r5, lsl #12
   
  /*if((TIMx == TIM1) || (TIMx == TIM8))*/
  if(IS_TIM_ADVANCED_INSTANCE(TIMx) != RESET)
 80019a8:	4d06      	ldr	r5, [pc, #24]	; (80019c4 <TIM_OC4_SetConfig+0x40>)
 80019aa:	42a8      	cmp	r0, r5
  {
    assert_param(IS_TIM_OCIDLE_STATE(OC_Config->OCIdleState));
    /* Reset the Output Compare IDLE State */
    tmpcr2 &= ~TIM_CR2_OIS4;
    /* Set the Output Idle state */
    tmpcr2 |= (OC_Config->OCIdleState << 6U);
 80019ac:	bf02      	ittt	eq
 80019ae:	694d      	ldreq	r5, [r1, #20]
    tmpcr2 &= ~TIM_CR2_OIS4;
 80019b0:	f424 4480 	biceq.w	r4, r4, #16384	; 0x4000
    tmpcr2 |= (OC_Config->OCIdleState << 6U);
 80019b4:	ea44 1485 	orreq.w	r4, r4, r5, lsl #6
  }
  /* Write to TIMx CR2 */
  TIMx->CR2 = tmpcr2;
 80019b8:	6044      	str	r4, [r0, #4]
  
  /* Write to TIMx CCMR2 */  
  TIMx->CCMR2 = tmpccmrx;
 80019ba:	61c2      	str	r2, [r0, #28]
    
  /* Set the Capture Compare Register value */
  TIMx->CCR4 = OC_Config->Pulse;
 80019bc:	684a      	ldr	r2, [r1, #4]
 80019be:	6402      	str	r2, [r0, #64]	; 0x40
  
  /* Write to TIMx CCER */
  TIMx->CCER = tmpccer;
 80019c0:	6203      	str	r3, [r0, #32]
 80019c2:	bd30      	pop	{r4, r5, pc}
 80019c4:	40010000 	.word	0x40010000

080019c8 <HAL_TIM_Base_Start_IT>:
  __HAL_TIM_ENABLE_IT(htim, TIM_IT_UPDATE);
 80019c8:	6803      	ldr	r3, [r0, #0]
 80019ca:	68da      	ldr	r2, [r3, #12]
 80019cc:	f042 0201 	orr.w	r2, r2, #1
 80019d0:	60da      	str	r2, [r3, #12]
  __HAL_TIM_ENABLE(htim);
 80019d2:	681a      	ldr	r2, [r3, #0]
 80019d4:	f042 0201 	orr.w	r2, r2, #1
 80019d8:	601a      	str	r2, [r3, #0]
}
 80019da:	2000      	movs	r0, #0
 80019dc:	4770      	bx	lr

080019de <HAL_TIM_PeriodElapsedCallback>:
 80019de:	4770      	bx	lr

080019e0 <HAL_TIM_OC_DelayElapsedCallback>:
 80019e0:	4770      	bx	lr

080019e2 <HAL_TIM_IC_CaptureCallback>:
 80019e2:	4770      	bx	lr

080019e4 <HAL_TIM_TriggerCallback>:
 80019e4:	4770      	bx	lr

080019e6 <HAL_TIM_IRQHandler>:
  if(__HAL_TIM_GET_FLAG(htim, TIM_FLAG_CC1) != RESET)
 80019e6:	6803      	ldr	r3, [r0, #0]
 80019e8:	691a      	ldr	r2, [r3, #16]
 80019ea:	0791      	lsls	r1, r2, #30
{
 80019ec:	b510      	push	{r4, lr}
 80019ee:	4604      	mov	r4, r0
  if(__HAL_TIM_GET_FLAG(htim, TIM_FLAG_CC1) != RESET)
 80019f0:	d50e      	bpl.n	8001a10 <HAL_TIM_IRQHandler+0x2a>
    if(__HAL_TIM_GET_IT_SOURCE(htim, TIM_IT_CC1) !=RESET)
 80019f2:	68da      	ldr	r2, [r3, #12]
 80019f4:	0792      	lsls	r2, r2, #30
 80019f6:	d50b      	bpl.n	8001a10 <HAL_TIM_IRQHandler+0x2a>
        __HAL_TIM_CLEAR_IT(htim, TIM_IT_CC1);
 80019f8:	f06f 0202 	mvn.w	r2, #2
 80019fc:	611a      	str	r2, [r3, #16]
        if((htim->Instance->CCMR1 & TIM_CCMR1_CC1S) != 0x00U)
 80019fe:	699b      	ldr	r3, [r3, #24]
        htim->Channel = HAL_TIM_ACTIVE_CHANNEL_1;
 8001a00:	2201      	movs	r2, #1
        if((htim->Instance->CCMR1 & TIM_CCMR1_CC1S) != 0x00U)
 8001a02:	079b      	lsls	r3, r3, #30
        htim->Channel = HAL_TIM_ACTIVE_CHANNEL_1;
 8001a04:	7602      	strb	r2, [r0, #24]
        if((htim->Instance->CCMR1 & TIM_CCMR1_CC1S) != 0x00U)
 8001a06:	d077      	beq.n	8001af8 <HAL_TIM_IRQHandler+0x112>
          HAL_TIM_IC_CaptureCallback(htim);
 8001a08:	f7ff ffeb 	bl	80019e2 <HAL_TIM_IC_CaptureCallback>
        htim->Channel = HAL_TIM_ACTIVE_CHANNEL_CLEARED;
 8001a0c:	2300      	movs	r3, #0
 8001a0e:	7623      	strb	r3, [r4, #24]
  if(__HAL_TIM_GET_FLAG(htim, TIM_FLAG_CC2) != RESET)
 8001a10:	6823      	ldr	r3, [r4, #0]
 8001a12:	691a      	ldr	r2, [r3, #16]
 8001a14:	0750      	lsls	r0, r2, #29
 8001a16:	d510      	bpl.n	8001a3a <HAL_TIM_IRQHandler+0x54>
    if(__HAL_TIM_GET_IT_SOURCE(htim, TIM_IT_CC2) !=RESET)
 8001a18:	68da      	ldr	r2, [r3, #12]
 8001a1a:	0751      	lsls	r1, r2, #29
 8001a1c:	d50d      	bpl.n	8001a3a <HAL_TIM_IRQHandler+0x54>
      __HAL_TIM_CLEAR_IT(htim, TIM_IT_CC2);
 8001a1e:	f06f 0204 	mvn.w	r2, #4
 8001a22:	611a      	str	r2, [r3, #16]
      if((htim->Instance->CCMR1 & TIM_CCMR1_CC2S) != 0x00U)
 8001a24:	699b      	ldr	r3, [r3, #24]
      htim->Channel = HAL_TIM_ACTIVE_CHANNEL_2;
 8001a26:	2202      	movs	r2, #2
      if((htim->Instance->CCMR1 & TIM_CCMR1_CC2S) != 0x00U)
 8001a28:	f413 7f40 	tst.w	r3, #768	; 0x300
      htim->Channel = HAL_TIM_ACTIVE_CHANNEL_2;
 8001a2c:	7622      	strb	r2, [r4, #24]
        HAL_TIM_IC_CaptureCallback(htim);
 8001a2e:	4620      	mov	r0, r4
      if((htim->Instance->CCMR1 & TIM_CCMR1_CC2S) != 0x00U)
 8001a30:	d068      	beq.n	8001b04 <HAL_TIM_IRQHandler+0x11e>
        HAL_TIM_IC_CaptureCallback(htim);
 8001a32:	f7ff ffd6 	bl	80019e2 <HAL_TIM_IC_CaptureCallback>
      htim->Channel = HAL_TIM_ACTIVE_CHANNEL_CLEARED;
 8001a36:	2300      	movs	r3, #0
 8001a38:	7623      	strb	r3, [r4, #24]
  if(__HAL_TIM_GET_FLAG(htim, TIM_FLAG_CC3) != RESET)
 8001a3a:	6823      	ldr	r3, [r4, #0]
 8001a3c:	691a      	ldr	r2, [r3, #16]
 8001a3e:	0712      	lsls	r2, r2, #28
 8001a40:	d50f      	bpl.n	8001a62 <HAL_TIM_IRQHandler+0x7c>
    if(__HAL_TIM_GET_IT_SOURCE(htim, TIM_IT_CC3) !=RESET)
 8001a42:	68da      	ldr	r2, [r3, #12]
 8001a44:	0710      	lsls	r0, r2, #28
 8001a46:	d50c      	bpl.n	8001a62 <HAL_TIM_IRQHandler+0x7c>
      __HAL_TIM_CLEAR_IT(htim, TIM_IT_CC3);
 8001a48:	f06f 0208 	mvn.w	r2, #8
 8001a4c:	611a      	str	r2, [r3, #16]
      if((htim->Instance->CCMR2 & TIM_CCMR2_CC3S) != 0x00U)
 8001a4e:	69db      	ldr	r3, [r3, #28]
      htim->Channel = HAL_TIM_ACTIVE_CHANNEL_3;
 8001a50:	2204      	movs	r2, #4
      if((htim->Instance->CCMR2 & TIM_CCMR2_CC3S) != 0x00U)
 8001a52:	0799      	lsls	r1, r3, #30
      htim->Channel = HAL_TIM_ACTIVE_CHANNEL_3;
 8001a54:	7622      	strb	r2, [r4, #24]
        HAL_TIM_IC_CaptureCallback(htim);
 8001a56:	4620      	mov	r0, r4
      if((htim->Instance->CCMR2 & TIM_CCMR2_CC3S) != 0x00U)
 8001a58:	d05a      	beq.n	8001b10 <HAL_TIM_IRQHandler+0x12a>
        HAL_TIM_IC_CaptureCallback(htim);
 8001a5a:	f7ff ffc2 	bl	80019e2 <HAL_TIM_IC_CaptureCallback>
      htim->Channel = HAL_TIM_ACTIVE_CHANNEL_CLEARED;
 8001a5e:	2300      	movs	r3, #0
 8001a60:	7623      	strb	r3, [r4, #24]
  if(__HAL_TIM_GET_FLAG(htim, TIM_FLAG_CC4) != RESET)
 8001a62:	6823      	ldr	r3, [r4, #0]
 8001a64:	691a      	ldr	r2, [r3, #16]
 8001a66:	06d2      	lsls	r2, r2, #27
 8001a68:	d510      	bpl.n	8001a8c <HAL_TIM_IRQHandler+0xa6>
    if(__HAL_TIM_GET_IT_SOURCE(htim, TIM_IT_CC4) !=RESET)
 8001a6a:	68da      	ldr	r2, [r3, #12]
 8001a6c:	06d0      	lsls	r0, r2, #27
 8001a6e:	d50d      	bpl.n	8001a8c <HAL_TIM_IRQHandler+0xa6>
      __HAL_TIM_CLEAR_IT(htim, TIM_IT_CC4);
 8001a70:	f06f 0210 	mvn.w	r2, #16
 8001a74:	611a      	str	r2, [r3, #16]
      if((htim->Instance->CCMR2 & TIM_CCMR2_CC4S) != 0x00U)
 8001a76:	69db      	ldr	r3, [r3, #28]
      htim->Channel = HAL_TIM_ACTIVE_CHANNEL_4;
 8001a78:	2208      	movs	r2, #8
      if((htim->Instance->CCMR2 & TIM_CCMR2_CC4S) != 0x00U)
 8001a7a:	f413 7f40 	tst.w	r3, #768	; 0x300
      htim->Channel = HAL_TIM_ACTIVE_CHANNEL_4;
 8001a7e:	7622      	strb	r2, [r4, #24]
        HAL_TIM_IC_CaptureCallback(htim);
 8001a80:	4620      	mov	r0, r4
      if((htim->Instance->CCMR2 & TIM_CCMR2_CC4S) != 0x00U)
 8001a82:	d04b      	beq.n	8001b1c <HAL_TIM_IRQHandler+0x136>
        HAL_TIM_IC_CaptureCallback(htim);
 8001a84:	f7ff ffad 	bl	80019e2 <HAL_TIM_IC_CaptureCallback>
      htim->Channel = HAL_TIM_ACTIVE_CHANNEL_CLEARED;
 8001a88:	2300      	movs	r3, #0
 8001a8a:	7623      	strb	r3, [r4, #24]
  if(__HAL_TIM_GET_FLAG(htim, TIM_FLAG_UPDATE) != RESET)
 8001a8c:	6823      	ldr	r3, [r4, #0]
 8001a8e:	691a      	ldr	r2, [r3, #16]
 8001a90:	07d1      	lsls	r1, r2, #31
 8001a92:	d508      	bpl.n	8001aa6 <HAL_TIM_IRQHandler+0xc0>
    if(__HAL_TIM_GET_IT_SOURCE(htim, TIM_IT_UPDATE) !=RESET)
 8001a94:	68da      	ldr	r2, [r3, #12]
 8001a96:	07d2      	lsls	r2, r2, #31
 8001a98:	d505      	bpl.n	8001aa6 <HAL_TIM_IRQHandler+0xc0>
      __HAL_TIM_CLEAR_IT(htim, TIM_IT_UPDATE);
 8001a9a:	f06f 0201 	mvn.w	r2, #1
 8001a9e:	611a      	str	r2, [r3, #16]
      HAL_TIM_PeriodElapsedCallback(htim);
 8001aa0:	4620      	mov	r0, r4
 8001aa2:	f7ff ff9c 	bl	80019de <HAL_TIM_PeriodElapsedCallback>
  if(__HAL_TIM_GET_FLAG(htim, TIM_FLAG_BREAK) != RESET)
 8001aa6:	6823      	ldr	r3, [r4, #0]
 8001aa8:	691a      	ldr	r2, [r3, #16]
 8001aaa:	0610      	lsls	r0, r2, #24
 8001aac:	d508      	bpl.n	8001ac0 <HAL_TIM_IRQHandler+0xda>
    if(__HAL_TIM_GET_IT_SOURCE(htim, TIM_IT_BREAK) !=RESET)
 8001aae:	68da      	ldr	r2, [r3, #12]
 8001ab0:	0611      	lsls	r1, r2, #24
 8001ab2:	d505      	bpl.n	8001ac0 <HAL_TIM_IRQHandler+0xda>
      __HAL_TIM_CLEAR_IT(htim, TIM_IT_BREAK);
 8001ab4:	f06f 0280 	mvn.w	r2, #128	; 0x80
 8001ab8:	611a      	str	r2, [r3, #16]
      HAL_TIMEx_BreakCallback(htim);
 8001aba:	4620      	mov	r0, r4
 8001abc:	f000 f9d9 	bl	8001e72 <HAL_TIMEx_BreakCallback>
  if(__HAL_TIM_GET_FLAG(htim, TIM_FLAG_TRIGGER) != RESET)
 8001ac0:	6823      	ldr	r3, [r4, #0]
 8001ac2:	691a      	ldr	r2, [r3, #16]
 8001ac4:	0652      	lsls	r2, r2, #25
 8001ac6:	d508      	bpl.n	8001ada <HAL_TIM_IRQHandler+0xf4>
    if(__HAL_TIM_GET_IT_SOURCE(htim, TIM_IT_TRIGGER) !=RESET)
 8001ac8:	68da      	ldr	r2, [r3, #12]
 8001aca:	0650      	lsls	r0, r2, #25
 8001acc:	d505      	bpl.n	8001ada <HAL_TIM_IRQHandler+0xf4>
      __HAL_TIM_CLEAR_IT(htim, TIM_IT_TRIGGER);
 8001ace:	f06f 0240 	mvn.w	r2, #64	; 0x40
 8001ad2:	611a      	str	r2, [r3, #16]
      HAL_TIM_TriggerCallback(htim);
 8001ad4:	4620      	mov	r0, r4
 8001ad6:	f7ff ff85 	bl	80019e4 <HAL_TIM_TriggerCallback>
  if(__HAL_TIM_GET_FLAG(htim, TIM_FLAG_COM) != RESET)
 8001ada:	6823      	ldr	r3, [r4, #0]
 8001adc:	691a      	ldr	r2, [r3, #16]
 8001ade:	0691      	lsls	r1, r2, #26
 8001ae0:	d522      	bpl.n	8001b28 <HAL_TIM_IRQHandler+0x142>
    if(__HAL_TIM_GET_IT_SOURCE(htim, TIM_IT_COM) !=RESET)
 8001ae2:	68da      	ldr	r2, [r3, #12]
 8001ae4:	0692      	lsls	r2, r2, #26
 8001ae6:	d51f      	bpl.n	8001b28 <HAL_TIM_IRQHandler+0x142>
      __HAL_TIM_CLEAR_IT(htim, TIM_FLAG_COM);
 8001ae8:	f06f 0220 	mvn.w	r2, #32
      HAL_TIMEx_CommutationCallback(htim);
 8001aec:	4620      	mov	r0, r4
      __HAL_TIM_CLEAR_IT(htim, TIM_FLAG_COM);
 8001aee:	611a      	str	r2, [r3, #16]
}
 8001af0:	e8bd 4010 	ldmia.w	sp!, {r4, lr}
      HAL_TIMEx_CommutationCallback(htim);
 8001af4:	f000 b9bc 	b.w	8001e70 <HAL_TIMEx_CommutationCallback>
          HAL_TIM_OC_DelayElapsedCallback(htim);
 8001af8:	f7ff ff72 	bl	80019e0 <HAL_TIM_OC_DelayElapsedCallback>
          HAL_TIM_PWM_PulseFinishedCallback(htim);
 8001afc:	4620      	mov	r0, r4
 8001afe:	f001 fad9 	bl	80030b4 <HAL_TIM_PWM_PulseFinishedCallback>
 8001b02:	e783      	b.n	8001a0c <HAL_TIM_IRQHandler+0x26>
        HAL_TIM_OC_DelayElapsedCallback(htim);
 8001b04:	f7ff ff6c 	bl	80019e0 <HAL_TIM_OC_DelayElapsedCallback>
        HAL_TIM_PWM_PulseFinishedCallback(htim);
 8001b08:	4620      	mov	r0, r4
 8001b0a:	f001 fad3 	bl	80030b4 <HAL_TIM_PWM_PulseFinishedCallback>
 8001b0e:	e792      	b.n	8001a36 <HAL_TIM_IRQHandler+0x50>
        HAL_TIM_OC_DelayElapsedCallback(htim);
 8001b10:	f7ff ff66 	bl	80019e0 <HAL_TIM_OC_DelayElapsedCallback>
        HAL_TIM_PWM_PulseFinishedCallback(htim); 
 8001b14:	4620      	mov	r0, r4
 8001b16:	f001 facd 	bl	80030b4 <HAL_TIM_PWM_PulseFinishedCallback>
 8001b1a:	e7a0      	b.n	8001a5e <HAL_TIM_IRQHandler+0x78>
        HAL_TIM_OC_DelayElapsedCallback(htim);
 8001b1c:	f7ff ff60 	bl	80019e0 <HAL_TIM_OC_DelayElapsedCallback>
        HAL_TIM_PWM_PulseFinishedCallback(htim);
 8001b20:	4620      	mov	r0, r4
 8001b22:	f001 fac7 	bl	80030b4 <HAL_TIM_PWM_PulseFinishedCallback>
 8001b26:	e7af      	b.n	8001a88 <HAL_TIM_IRQHandler+0xa2>
 8001b28:	bd10      	pop	{r4, pc}
	...

08001b2c <TIM_Base_SetConfig>:
  if(IS_TIM_CC3_INSTANCE(TIMx) != RESET)   
 8001b2c:	4a15      	ldr	r2, [pc, #84]	; (8001b84 <TIM_Base_SetConfig+0x58>)
  tmpcr1 = TIMx->CR1;
 8001b2e:	6803      	ldr	r3, [r0, #0]
  if(IS_TIM_CC3_INSTANCE(TIMx) != RESET)   
 8001b30:	4290      	cmp	r0, r2
{
 8001b32:	b510      	push	{r4, lr}
  if(IS_TIM_CC3_INSTANCE(TIMx) != RESET)   
 8001b34:	d002      	beq.n	8001b3c <TIM_Base_SetConfig+0x10>
 8001b36:	4c14      	ldr	r4, [pc, #80]	; (8001b88 <TIM_Base_SetConfig+0x5c>)
 8001b38:	42a0      	cmp	r0, r4
 8001b3a:	d10e      	bne.n	8001b5a <TIM_Base_SetConfig+0x2e>
    tmpcr1 |= Structure->CounterMode;
 8001b3c:	684c      	ldr	r4, [r1, #4]
    tmpcr1 &= ~(TIM_CR1_DIR | TIM_CR1_CMS);
 8001b3e:	f023 0370 	bic.w	r3, r3, #112	; 0x70
  if(IS_TIM_CC1_INSTANCE(TIMx) != RESET)  
 8001b42:	4290      	cmp	r0, r2
    tmpcr1 |= Structure->CounterMode;
 8001b44:	ea43 0304 	orr.w	r3, r3, r4
  if(IS_TIM_CC1_INSTANCE(TIMx) != RESET)  
 8001b48:	d104      	bne.n	8001b54 <TIM_Base_SetConfig+0x28>
    tmpcr1 |= (uint32_t)Structure->ClockDivision;
 8001b4a:	68ca      	ldr	r2, [r1, #12]
    tmpcr1 &= ~TIM_CR1_CKD;
 8001b4c:	f423 7340 	bic.w	r3, r3, #768	; 0x300
    tmpcr1 |= (uint32_t)Structure->ClockDivision;
 8001b50:	4313      	orrs	r3, r2
 8001b52:	e009      	b.n	8001b68 <TIM_Base_SetConfig+0x3c>
  if(IS_TIM_CC1_INSTANCE(TIMx) != RESET)  
 8001b54:	4a0c      	ldr	r2, [pc, #48]	; (8001b88 <TIM_Base_SetConfig+0x5c>)
 8001b56:	4290      	cmp	r0, r2
 8001b58:	d0f7      	beq.n	8001b4a <TIM_Base_SetConfig+0x1e>
 8001b5a:	4a0c      	ldr	r2, [pc, #48]	; (8001b8c <TIM_Base_SetConfig+0x60>)
 8001b5c:	4290      	cmp	r0, r2
 8001b5e:	d0f4      	beq.n	8001b4a <TIM_Base_SetConfig+0x1e>
 8001b60:	f502 6200 	add.w	r2, r2, #2048	; 0x800
 8001b64:	4290      	cmp	r0, r2
 8001b66:	d0f0      	beq.n	8001b4a <TIM_Base_SetConfig+0x1e>
  TIMx->CR1 = tmpcr1;
 8001b68:	6003      	str	r3, [r0, #0]
  TIMx->ARR = (uint32_t)Structure->Period ;
 8001b6a:	688b      	ldr	r3, [r1, #8]
 8001b6c:	62c3      	str	r3, [r0, #44]	; 0x2c
  TIMx->PSC = (uint32_t)Structure->Prescaler;
 8001b6e:	680b      	ldr	r3, [r1, #0]
 8001b70:	6283      	str	r3, [r0, #40]	; 0x28
  if(IS_TIM_ADVANCED_INSTANCE(TIMx) != RESET)  
 8001b72:	4b04      	ldr	r3, [pc, #16]	; (8001b84 <TIM_Base_SetConfig+0x58>)
 8001b74:	4298      	cmp	r0, r3
    TIMx->RCR = Structure->RepetitionCounter;
 8001b76:	bf04      	itt	eq
 8001b78:	690b      	ldreq	r3, [r1, #16]
 8001b7a:	6303      	streq	r3, [r0, #48]	; 0x30
  TIMx->EGR = TIM_EGR_UG;
 8001b7c:	2301      	movs	r3, #1
 8001b7e:	6143      	str	r3, [r0, #20]
}
 8001b80:	bd10      	pop	{r4, pc}
 8001b82:	bf00      	nop
 8001b84:	40010000 	.word	0x40010000
 8001b88:	40000c00 	.word	0x40000c00
 8001b8c:	40014000 	.word	0x40014000

08001b90 <HAL_TIM_Base_Init>:
{ 
 8001b90:	b510      	push	{r4, lr}
  if(htim == NULL)
 8001b92:	4604      	mov	r4, r0
 8001b94:	b1a0      	cbz	r0, 8001bc0 <HAL_TIM_Base_Init+0x30>
  if(htim->State == HAL_TIM_STATE_RESET)
 8001b96:	f890 3039 	ldrb.w	r3, [r0, #57]	; 0x39
 8001b9a:	f003 02ff 	and.w	r2, r3, #255	; 0xff
 8001b9e:	b91b      	cbnz	r3, 8001ba8 <HAL_TIM_Base_Init+0x18>
    htim->Lock = HAL_UNLOCKED;
 8001ba0:	f880 2038 	strb.w	r2, [r0, #56]	; 0x38
    HAL_TIM_Base_MspInit(htim);
 8001ba4:	f001 fb1a 	bl	80031dc <HAL_TIM_Base_MspInit>
  htim->State= HAL_TIM_STATE_BUSY;
 8001ba8:	2302      	movs	r3, #2
 8001baa:	f884 3039 	strb.w	r3, [r4, #57]	; 0x39
  TIM_Base_SetConfig(htim->Instance, &htim->Init); 
 8001bae:	6820      	ldr	r0, [r4, #0]
 8001bb0:	1d21      	adds	r1, r4, #4
 8001bb2:	f7ff ffbb 	bl	8001b2c <TIM_Base_SetConfig>
  htim->State= HAL_TIM_STATE_READY;
 8001bb6:	2301      	movs	r3, #1
 8001bb8:	f884 3039 	strb.w	r3, [r4, #57]	; 0x39
  return HAL_OK;
 8001bbc:	2000      	movs	r0, #0
 8001bbe:	bd10      	pop	{r4, pc}
    return HAL_ERROR;
 8001bc0:	2001      	movs	r0, #1
}
 8001bc2:	bd10      	pop	{r4, pc}

08001bc4 <HAL_TIM_PWM_Init>:
{
 8001bc4:	b510      	push	{r4, lr}
  if(htim == NULL)
 8001bc6:	4604      	mov	r4, r0
 8001bc8:	b1a0      	cbz	r0, 8001bf4 <HAL_TIM_PWM_Init+0x30>
  if(htim->State == HAL_TIM_STATE_RESET)
 8001bca:	f890 3039 	ldrb.w	r3, [r0, #57]	; 0x39
 8001bce:	f003 02ff 	and.w	r2, r3, #255	; 0xff
 8001bd2:	b91b      	cbnz	r3, 8001bdc <HAL_TIM_PWM_Init+0x18>
    htim->Lock = HAL_UNLOCKED;
 8001bd4:	f880 2038 	strb.w	r2, [r0, #56]	; 0x38
    HAL_TIM_PWM_MspInit(htim);
 8001bd8:	f001 fae2 	bl	80031a0 <HAL_TIM_PWM_MspInit>
  htim->State= HAL_TIM_STATE_BUSY;  
 8001bdc:	2302      	movs	r3, #2
 8001bde:	f884 3039 	strb.w	r3, [r4, #57]	; 0x39
  TIM_Base_SetConfig(htim->Instance, &htim->Init); 
 8001be2:	6820      	ldr	r0, [r4, #0]
 8001be4:	1d21      	adds	r1, r4, #4
 8001be6:	f7ff ffa1 	bl	8001b2c <TIM_Base_SetConfig>
  htim->State= HAL_TIM_STATE_READY;
 8001bea:	2301      	movs	r3, #1
 8001bec:	f884 3039 	strb.w	r3, [r4, #57]	; 0x39
  return HAL_OK;
 8001bf0:	2000      	movs	r0, #0
 8001bf2:	bd10      	pop	{r4, pc}
    return HAL_ERROR;
 8001bf4:	2001      	movs	r0, #1
}  
 8001bf6:	bd10      	pop	{r4, pc}

08001bf8 <TIM_OC2_SetConfig>:
  TIMx->CCER &= ~TIM_CCER_CC2E;
 8001bf8:	6a03      	ldr	r3, [r0, #32]
 8001bfa:	f023 0310 	bic.w	r3, r3, #16
 8001bfe:	6203      	str	r3, [r0, #32]
  tmpccer = TIMx->CCER;
 8001c00:	6a03      	ldr	r3, [r0, #32]
{
 8001c02:	b570      	push	{r4, r5, r6, lr}
  tmpcr2 = TIMx->CR2;
 8001c04:	6844      	ldr	r4, [r0, #4]
  tmpccmrx = TIMx->CCMR1;
 8001c06:	6982      	ldr	r2, [r0, #24]
  tmpccmrx |= (OC_Config->OCMode << 8U);
 8001c08:	680d      	ldr	r5, [r1, #0]
  tmpccmrx &= ~TIM_CCMR1_CC2S;
 8001c0a:	f422 42e6 	bic.w	r2, r2, #29440	; 0x7300
  tmpccmrx |= (OC_Config->OCMode << 8U);
 8001c0e:	ea42 2205 	orr.w	r2, r2, r5, lsl #8
  tmpccer |= (OC_Config->OCPolarity << 4U);
 8001c12:	688d      	ldr	r5, [r1, #8]
  tmpccer &= ~TIM_CCER_CC2P;
 8001c14:	f023 0320 	bic.w	r3, r3, #32
  tmpccer |= (OC_Config->OCPolarity << 4U);
 8001c18:	ea43 1305 	orr.w	r3, r3, r5, lsl #4
  if(IS_TIM_ADVANCED_INSTANCE(TIMx) != RESET)
 8001c1c:	4d0b      	ldr	r5, [pc, #44]	; (8001c4c <TIM_OC2_SetConfig+0x54>)
 8001c1e:	42a8      	cmp	r0, r5
 8001c20:	d10d      	bne.n	8001c3e <TIM_OC2_SetConfig+0x46>
    tmpccer |= (OC_Config->OCNPolarity << 4U);
 8001c22:	68cd      	ldr	r5, [r1, #12]
    tmpcr2 |= (OC_Config->OCNIdleState << 2U);
 8001c24:	698e      	ldr	r6, [r1, #24]
    tmpccer &= ~TIM_CCER_CC2NP;
 8001c26:	f023 0380 	bic.w	r3, r3, #128	; 0x80
    tmpccer |= (OC_Config->OCNPolarity << 4U);
 8001c2a:	ea43 1305 	orr.w	r3, r3, r5, lsl #4
    tmpcr2 |= (OC_Config->OCIdleState << 2U);
 8001c2e:	694d      	ldr	r5, [r1, #20]
    tmpcr2 &= ~TIM_CR2_OIS2N;
 8001c30:	f424 6440 	bic.w	r4, r4, #3072	; 0xc00
    tmpcr2 |= (OC_Config->OCNIdleState << 2U);
 8001c34:	4335      	orrs	r5, r6
    tmpccer &= ~TIM_CCER_CC2NE;
 8001c36:	f023 0340 	bic.w	r3, r3, #64	; 0x40
    tmpcr2 |= (OC_Config->OCNIdleState << 2U);
 8001c3a:	ea44 0485 	orr.w	r4, r4, r5, lsl #2
  TIMx->CR2 = tmpcr2;
 8001c3e:	6044      	str	r4, [r0, #4]
  TIMx->CCMR1 = tmpccmrx;
 8001c40:	6182      	str	r2, [r0, #24]
  TIMx->CCR2 = OC_Config->Pulse;
 8001c42:	684a      	ldr	r2, [r1, #4]
 8001c44:	6382      	str	r2, [r0, #56]	; 0x38
  TIMx->CCER = tmpccer;
 8001c46:	6203      	str	r3, [r0, #32]
 8001c48:	bd70      	pop	{r4, r5, r6, pc}
 8001c4a:	bf00      	nop
 8001c4c:	40010000 	.word	0x40010000

08001c50 <HAL_TIM_PWM_ConfigChannel>:
{
 8001c50:	b538      	push	{r3, r4, r5, lr}
  __HAL_LOCK(htim);
 8001c52:	f890 3038 	ldrb.w	r3, [r0, #56]	; 0x38
 8001c56:	2b01      	cmp	r3, #1
{
 8001c58:	4604      	mov	r4, r0
 8001c5a:	f04f 0002 	mov.w	r0, #2
  __HAL_LOCK(htim);
 8001c5e:	d025      	beq.n	8001cac <HAL_TIM_PWM_ConfigChannel+0x5c>
 8001c60:	2301      	movs	r3, #1
 8001c62:	f884 3038 	strb.w	r3, [r4, #56]	; 0x38
  htim->State = HAL_TIM_STATE_BUSY;
 8001c66:	f884 0039 	strb.w	r0, [r4, #57]	; 0x39
  switch (Channel)
 8001c6a:	2a0c      	cmp	r2, #12
 8001c6c:	d818      	bhi.n	8001ca0 <HAL_TIM_PWM_ConfigChannel+0x50>
 8001c6e:	e8df f002 	tbb	[pc, r2]
 8001c72:	1707      	.short	0x1707
 8001c74:	171e1717 	.word	0x171e1717
 8001c78:	172f1717 	.word	0x172f1717
 8001c7c:	1717      	.short	0x1717
 8001c7e:	40          	.byte	0x40
 8001c7f:	00          	.byte	0x00
      TIM_OC1_SetConfig(htim->Instance, sConfig);
 8001c80:	6820      	ldr	r0, [r4, #0]
 8001c82:	f7ff fe2d 	bl	80018e0 <TIM_OC1_SetConfig>
      htim->Instance->CCMR1 |= TIM_CCMR1_OC1PE;
 8001c86:	6823      	ldr	r3, [r4, #0]
      htim->Instance->CCMR1 |= sConfig->OCFastMode;
 8001c88:	6909      	ldr	r1, [r1, #16]
      htim->Instance->CCMR1 |= TIM_CCMR1_OC1PE;
 8001c8a:	699a      	ldr	r2, [r3, #24]
 8001c8c:	f042 0208 	orr.w	r2, r2, #8
 8001c90:	619a      	str	r2, [r3, #24]
      htim->Instance->CCMR1 &= ~TIM_CCMR1_OC1FE;
 8001c92:	699a      	ldr	r2, [r3, #24]
 8001c94:	f022 0204 	bic.w	r2, r2, #4
 8001c98:	619a      	str	r2, [r3, #24]
      htim->Instance->CCMR1 |= sConfig->OCFastMode;
 8001c9a:	699a      	ldr	r2, [r3, #24]
 8001c9c:	430a      	orrs	r2, r1
      htim->Instance->CCMR1 |= sConfig->OCFastMode << 8U;
 8001c9e:	619a      	str	r2, [r3, #24]
  htim->State = HAL_TIM_STATE_READY;
 8001ca0:	2301      	movs	r3, #1
  __HAL_UNLOCK(htim);
 8001ca2:	2000      	movs	r0, #0
  htim->State = HAL_TIM_STATE_READY;
 8001ca4:	f884 3039 	strb.w	r3, [r4, #57]	; 0x39
  __HAL_UNLOCK(htim);
 8001ca8:	f884 0038 	strb.w	r0, [r4, #56]	; 0x38
}
 8001cac:	bd38      	pop	{r3, r4, r5, pc}
      TIM_OC2_SetConfig(htim->Instance, sConfig);
 8001cae:	6820      	ldr	r0, [r4, #0]
 8001cb0:	f7ff ffa2 	bl	8001bf8 <TIM_OC2_SetConfig>
      htim->Instance->CCMR1 |= TIM_CCMR1_OC2PE;
 8001cb4:	6823      	ldr	r3, [r4, #0]
      htim->Instance->CCMR1 |= sConfig->OCFastMode << 8U;
 8001cb6:	6909      	ldr	r1, [r1, #16]
      htim->Instance->CCMR1 |= TIM_CCMR1_OC2PE;
 8001cb8:	699a      	ldr	r2, [r3, #24]
 8001cba:	f442 6200 	orr.w	r2, r2, #2048	; 0x800
 8001cbe:	619a      	str	r2, [r3, #24]
      htim->Instance->CCMR1 &= ~TIM_CCMR1_OC2FE;
 8001cc0:	699a      	ldr	r2, [r3, #24]
 8001cc2:	f422 6280 	bic.w	r2, r2, #1024	; 0x400
 8001cc6:	619a      	str	r2, [r3, #24]
      htim->Instance->CCMR1 |= sConfig->OCFastMode << 8U;
 8001cc8:	699a      	ldr	r2, [r3, #24]
 8001cca:	ea42 2201 	orr.w	r2, r2, r1, lsl #8
 8001cce:	e7e6      	b.n	8001c9e <HAL_TIM_PWM_ConfigChannel+0x4e>
      TIM_OC3_SetConfig(htim->Instance, sConfig);
 8001cd0:	6820      	ldr	r0, [r4, #0]
 8001cd2:	f7ff fe2d 	bl	8001930 <TIM_OC3_SetConfig>
      htim->Instance->CCMR2 |= TIM_CCMR2_OC3PE;
 8001cd6:	6823      	ldr	r3, [r4, #0]
      htim->Instance->CCMR2 |= sConfig->OCFastMode;  
 8001cd8:	6909      	ldr	r1, [r1, #16]
      htim->Instance->CCMR2 |= TIM_CCMR2_OC3PE;
 8001cda:	69da      	ldr	r2, [r3, #28]
 8001cdc:	f042 0208 	orr.w	r2, r2, #8
 8001ce0:	61da      	str	r2, [r3, #28]
      htim->Instance->CCMR2 &= ~TIM_CCMR2_OC3FE;
 8001ce2:	69da      	ldr	r2, [r3, #28]
 8001ce4:	f022 0204 	bic.w	r2, r2, #4
 8001ce8:	61da      	str	r2, [r3, #28]
      htim->Instance->CCMR2 |= sConfig->OCFastMode;  
 8001cea:	69da      	ldr	r2, [r3, #28]
 8001cec:	430a      	orrs	r2, r1
      htim->Instance->CCMR2 |= sConfig->OCFastMode << 8U;  
 8001cee:	61da      	str	r2, [r3, #28]
    break;
 8001cf0:	e7d6      	b.n	8001ca0 <HAL_TIM_PWM_ConfigChannel+0x50>
      TIM_OC4_SetConfig(htim->Instance, sConfig);
 8001cf2:	6820      	ldr	r0, [r4, #0]
 8001cf4:	f7ff fe46 	bl	8001984 <TIM_OC4_SetConfig>
      htim->Instance->CCMR2 |= TIM_CCMR2_OC4PE;
 8001cf8:	6823      	ldr	r3, [r4, #0]
      htim->Instance->CCMR2 |= sConfig->OCFastMode << 8U;  
 8001cfa:	6909      	ldr	r1, [r1, #16]
      htim->Instance->CCMR2 |= TIM_CCMR2_OC4PE;
 8001cfc:	69da      	ldr	r2, [r3, #28]
 8001cfe:	f442 6200 	orr.w	r2, r2, #2048	; 0x800
 8001d02:	61da      	str	r2, [r3, #28]
      htim->Instance->CCMR2 &= ~TIM_CCMR2_OC4FE;
 8001d04:	69da      	ldr	r2, [r3, #28]
 8001d06:	f422 6280 	bic.w	r2, r2, #1024	; 0x400
 8001d0a:	61da      	str	r2, [r3, #28]
      htim->Instance->CCMR2 |= sConfig->OCFastMode << 8U;  
 8001d0c:	69da      	ldr	r2, [r3, #28]
 8001d0e:	ea42 2201 	orr.w	r2, r2, r1, lsl #8
 8001d12:	e7ec      	b.n	8001cee <HAL_TIM_PWM_ConfigChannel+0x9e>

08001d14 <TIM_CCxChannelCmd>:
  TIMx->CCER &= ~tmp;
 8001d14:	6a03      	ldr	r3, [r0, #32]
{
 8001d16:	b510      	push	{r4, lr}
  tmp = TIM_CCER_CC1E << Channel;
 8001d18:	2401      	movs	r4, #1
 8001d1a:	408c      	lsls	r4, r1
  TIMx->CCER &= ~tmp;
 8001d1c:	ea23 0304 	bic.w	r3, r3, r4
 8001d20:	6203      	str	r3, [r0, #32]
  TIMx->CCER |= (uint32_t)(ChannelState << Channel);
 8001d22:	6a03      	ldr	r3, [r0, #32]
 8001d24:	408a      	lsls	r2, r1
 8001d26:	431a      	orrs	r2, r3
 8001d28:	6202      	str	r2, [r0, #32]
 8001d2a:	bd10      	pop	{r4, pc}

08001d2c <HAL_TIM_PWM_Start_IT>:
{
 8001d2c:	b510      	push	{r4, lr}
 8001d2e:	4604      	mov	r4, r0
  switch (Channel)
 8001d30:	290c      	cmp	r1, #12
 8001d32:	d80d      	bhi.n	8001d50 <HAL_TIM_PWM_Start_IT+0x24>
 8001d34:	e8df f001 	tbb	[pc, r1]
 8001d38:	0c0c0c07 	.word	0x0c0c0c07
 8001d3c:	0c0c0c1e 	.word	0x0c0c0c1e
 8001d40:	0c0c0c23 	.word	0x0c0c0c23
 8001d44:	28          	.byte	0x28
 8001d45:	00          	.byte	0x00
      __HAL_TIM_ENABLE_IT(htim, TIM_IT_CC1);
 8001d46:	6802      	ldr	r2, [r0, #0]
 8001d48:	68d3      	ldr	r3, [r2, #12]
 8001d4a:	f043 0302 	orr.w	r3, r3, #2
      __HAL_TIM_ENABLE_IT(htim, TIM_IT_CC4);
 8001d4e:	60d3      	str	r3, [r2, #12]
  TIM_CCxChannelCmd(htim->Instance, Channel, TIM_CCx_ENABLE);
 8001d50:	6820      	ldr	r0, [r4, #0]
 8001d52:	2201      	movs	r2, #1
 8001d54:	f7ff ffde 	bl	8001d14 <TIM_CCxChannelCmd>
  if(IS_TIM_ADVANCED_INSTANCE(htim->Instance) != RESET)  
 8001d58:	6823      	ldr	r3, [r4, #0]
 8001d5a:	4a0e      	ldr	r2, [pc, #56]	; (8001d94 <HAL_TIM_PWM_Start_IT+0x68>)
 8001d5c:	4293      	cmp	r3, r2
    __HAL_TIM_MOE_ENABLE(htim);
 8001d5e:	bf02      	ittt	eq
 8001d60:	6c5a      	ldreq	r2, [r3, #68]	; 0x44
 8001d62:	f442 4200 	orreq.w	r2, r2, #32768	; 0x8000
 8001d66:	645a      	streq	r2, [r3, #68]	; 0x44
  __HAL_TIM_ENABLE(htim);
 8001d68:	681a      	ldr	r2, [r3, #0]
 8001d6a:	f042 0201 	orr.w	r2, r2, #1
 8001d6e:	601a      	str	r2, [r3, #0]
} 
 8001d70:	2000      	movs	r0, #0
 8001d72:	bd10      	pop	{r4, pc}
      __HAL_TIM_ENABLE_IT(htim, TIM_IT_CC2);
 8001d74:	6802      	ldr	r2, [r0, #0]
 8001d76:	68d3      	ldr	r3, [r2, #12]
 8001d78:	f043 0304 	orr.w	r3, r3, #4
 8001d7c:	e7e7      	b.n	8001d4e <HAL_TIM_PWM_Start_IT+0x22>
      __HAL_TIM_ENABLE_IT(htim, TIM_IT_CC3);
 8001d7e:	6802      	ldr	r2, [r0, #0]
 8001d80:	68d3      	ldr	r3, [r2, #12]
 8001d82:	f043 0308 	orr.w	r3, r3, #8
 8001d86:	e7e2      	b.n	8001d4e <HAL_TIM_PWM_Start_IT+0x22>
      __HAL_TIM_ENABLE_IT(htim, TIM_IT_CC4);
 8001d88:	6802      	ldr	r2, [r0, #0]
 8001d8a:	68d3      	ldr	r3, [r2, #12]
 8001d8c:	f043 0310 	orr.w	r3, r3, #16
 8001d90:	e7dd      	b.n	8001d4e <HAL_TIM_PWM_Start_IT+0x22>
 8001d92:	bf00      	nop
 8001d94:	40010000 	.word	0x40010000

08001d98 <HAL_TIM_PWM_Stop_IT>:
{
 8001d98:	b510      	push	{r4, lr}
 8001d9a:	4604      	mov	r4, r0
  switch (Channel)
 8001d9c:	290c      	cmp	r1, #12
 8001d9e:	d80d      	bhi.n	8001dbc <HAL_TIM_PWM_Stop_IT+0x24>
 8001da0:	e8df f001 	tbb	[pc, r1]
 8001da4:	0c0c0c07 	.word	0x0c0c0c07
 8001da8:	0c0c0c32 	.word	0x0c0c0c32
 8001dac:	0c0c0c37 	.word	0x0c0c0c37
 8001db0:	3c          	.byte	0x3c
 8001db1:	00          	.byte	0x00
      __HAL_TIM_DISABLE_IT(htim, TIM_IT_CC1);
 8001db2:	6802      	ldr	r2, [r0, #0]
 8001db4:	68d3      	ldr	r3, [r2, #12]
 8001db6:	f023 0302 	bic.w	r3, r3, #2
      __HAL_TIM_DISABLE_IT(htim, TIM_IT_CC4);
 8001dba:	60d3      	str	r3, [r2, #12]
  TIM_CCxChannelCmd(htim->Instance, Channel, TIM_CCx_DISABLE);
 8001dbc:	2200      	movs	r2, #0
 8001dbe:	6820      	ldr	r0, [r4, #0]
 8001dc0:	f7ff ffa8 	bl	8001d14 <TIM_CCxChannelCmd>
  if(IS_TIM_ADVANCED_INSTANCE(htim->Instance) != RESET)  
 8001dc4:	6823      	ldr	r3, [r4, #0]
 8001dc6:	4a18      	ldr	r2, [pc, #96]	; (8001e28 <HAL_TIM_PWM_Stop_IT+0x90>)
 8001dc8:	4293      	cmp	r3, r2
 8001dca:	d10d      	bne.n	8001de8 <HAL_TIM_PWM_Stop_IT+0x50>
    __HAL_TIM_MOE_DISABLE(htim);
 8001dcc:	6a19      	ldr	r1, [r3, #32]
 8001dce:	f241 1211 	movw	r2, #4369	; 0x1111
 8001dd2:	4211      	tst	r1, r2
 8001dd4:	d108      	bne.n	8001de8 <HAL_TIM_PWM_Stop_IT+0x50>
 8001dd6:	6a19      	ldr	r1, [r3, #32]
 8001dd8:	f240 4244 	movw	r2, #1092	; 0x444
 8001ddc:	4211      	tst	r1, r2
 8001dde:	bf02      	ittt	eq
 8001de0:	6c5a      	ldreq	r2, [r3, #68]	; 0x44
 8001de2:	f422 4200 	biceq.w	r2, r2, #32768	; 0x8000
 8001de6:	645a      	streq	r2, [r3, #68]	; 0x44
  __HAL_TIM_DISABLE(htim);
 8001de8:	6a19      	ldr	r1, [r3, #32]
 8001dea:	f241 1211 	movw	r2, #4369	; 0x1111
 8001dee:	4211      	tst	r1, r2
 8001df0:	d108      	bne.n	8001e04 <HAL_TIM_PWM_Stop_IT+0x6c>
 8001df2:	6a19      	ldr	r1, [r3, #32]
 8001df4:	f240 4244 	movw	r2, #1092	; 0x444
 8001df8:	4211      	tst	r1, r2
 8001dfa:	bf02      	ittt	eq
 8001dfc:	681a      	ldreq	r2, [r3, #0]
 8001dfe:	f022 0201 	biceq.w	r2, r2, #1
 8001e02:	601a      	streq	r2, [r3, #0]
} 
 8001e04:	2000      	movs	r0, #0
 8001e06:	bd10      	pop	{r4, pc}
      __HAL_TIM_DISABLE_IT(htim, TIM_IT_CC2);
 8001e08:	6802      	ldr	r2, [r0, #0]
 8001e0a:	68d3      	ldr	r3, [r2, #12]
 8001e0c:	f023 0304 	bic.w	r3, r3, #4
 8001e10:	e7d3      	b.n	8001dba <HAL_TIM_PWM_Stop_IT+0x22>
      __HAL_TIM_DISABLE_IT(htim, TIM_IT_CC3);
 8001e12:	6802      	ldr	r2, [r0, #0]
 8001e14:	68d3      	ldr	r3, [r2, #12]
 8001e16:	f023 0308 	bic.w	r3, r3, #8
 8001e1a:	e7ce      	b.n	8001dba <HAL_TIM_PWM_Stop_IT+0x22>
      __HAL_TIM_DISABLE_IT(htim, TIM_IT_CC4);
 8001e1c:	6802      	ldr	r2, [r0, #0]
 8001e1e:	68d3      	ldr	r3, [r2, #12]
 8001e20:	f023 0310 	bic.w	r3, r3, #16
 8001e24:	e7c9      	b.n	8001dba <HAL_TIM_PWM_Stop_IT+0x22>
 8001e26:	bf00      	nop
 8001e28:	40010000 	.word	0x40010000

08001e2c <HAL_TIMEx_MasterConfigSynchronization>:
  /* Check the parameters */
  assert_param(IS_TIM_MASTER_INSTANCE(htim->Instance));
  assert_param(IS_TIM_TRGO_SOURCE(sMasterConfig->MasterOutputTrigger));
  assert_param(IS_TIM_MSM_STATE(sMasterConfig->MasterSlaveMode));
  
  __HAL_LOCK(htim);
 8001e2c:	f890 3038 	ldrb.w	r3, [r0, #56]	; 0x38
 8001e30:	2b01      	cmp	r3, #1
{
 8001e32:	b510      	push	{r4, lr}
 8001e34:	f04f 0302 	mov.w	r3, #2
  __HAL_LOCK(htim);
 8001e38:	d018      	beq.n	8001e6c <HAL_TIMEx_MasterConfigSynchronization+0x40>
  
  htim->State = HAL_TIM_STATE_BUSY;
 8001e3a:	f880 3039 	strb.w	r3, [r0, #57]	; 0x39

  /* Reset the MMS Bits */
  htim->Instance->CR2 &= ~TIM_CR2_MMS;
 8001e3e:	6803      	ldr	r3, [r0, #0]
  /* Select the TRGO source */
  htim->Instance->CR2 |= sMasterConfig->MasterOutputTrigger;
 8001e40:	680c      	ldr	r4, [r1, #0]
  htim->Instance->CR2 &= ~TIM_CR2_MMS;
 8001e42:	685a      	ldr	r2, [r3, #4]

  /* Reset the MSM Bit */
  htim->Instance->SMCR &= ~TIM_SMCR_MSM;
  /* Set or Reset the MSM Bit */
  htim->Instance->SMCR |= sMasterConfig->MasterSlaveMode;
 8001e44:	6849      	ldr	r1, [r1, #4]
  htim->Instance->CR2 &= ~TIM_CR2_MMS;
 8001e46:	f022 0270 	bic.w	r2, r2, #112	; 0x70
 8001e4a:	605a      	str	r2, [r3, #4]
  htim->Instance->CR2 |= sMasterConfig->MasterOutputTrigger;
 8001e4c:	685a      	ldr	r2, [r3, #4]
 8001e4e:	4322      	orrs	r2, r4
 8001e50:	605a      	str	r2, [r3, #4]
  htim->Instance->SMCR &= ~TIM_SMCR_MSM;
 8001e52:	689a      	ldr	r2, [r3, #8]
 8001e54:	f022 0280 	bic.w	r2, r2, #128	; 0x80
 8001e58:	609a      	str	r2, [r3, #8]
  htim->Instance->SMCR |= sMasterConfig->MasterSlaveMode;
 8001e5a:	689a      	ldr	r2, [r3, #8]
 8001e5c:	430a      	orrs	r2, r1
 8001e5e:	609a      	str	r2, [r3, #8]
  
  htim->State = HAL_TIM_STATE_READY;
 8001e60:	2301      	movs	r3, #1
 8001e62:	f880 3039 	strb.w	r3, [r0, #57]	; 0x39
  
  __HAL_UNLOCK(htim);
 8001e66:	2300      	movs	r3, #0
 8001e68:	f880 3038 	strb.w	r3, [r0, #56]	; 0x38
  __HAL_LOCK(htim);
 8001e6c:	4618      	mov	r0, r3
  
  return HAL_OK;
} 
 8001e6e:	bd10      	pop	{r4, pc}

08001e70 <HAL_TIMEx_CommutationCallback>:
 8001e70:	4770      	bx	lr

08001e72 <HAL_TIMEx_BreakCallback>:
  * @param  htim pointer to a TIM_HandleTypeDef structure that contains
  *                the configuration information for TIM module.
  * @retval None
  */
__weak void HAL_TIMEx_BreakCallback(TIM_HandleTypeDef *htim)
{
 8001e72:	4770      	bx	lr

08001e74 <UART_EndRxTransfer>:
  * @retval None
  */
static void UART_EndRxTransfer(UART_HandleTypeDef *huart)
{
  /* Disable RXNE, PE and ERR (Frame error, noise error, overrun error) interrupts */
  CLEAR_BIT(huart->Instance->CR1, (USART_CR1_RXNEIE | USART_CR1_PEIE));
 8001e74:	6803      	ldr	r3, [r0, #0]
 8001e76:	68da      	ldr	r2, [r3, #12]
 8001e78:	f422 7290 	bic.w	r2, r2, #288	; 0x120
 8001e7c:	60da      	str	r2, [r3, #12]
  CLEAR_BIT(huart->Instance->CR3, USART_CR3_EIE);
 8001e7e:	695a      	ldr	r2, [r3, #20]
 8001e80:	f022 0201 	bic.w	r2, r2, #1
 8001e84:	615a      	str	r2, [r3, #20]

  /* At end of Rx process, restore huart->RxState to Ready */
  huart->RxState = HAL_UART_STATE_READY;
 8001e86:	2320      	movs	r3, #32
 8001e88:	f880 303a 	strb.w	r3, [r0, #58]	; 0x3a
 8001e8c:	4770      	bx	lr
	...

08001e90 <UART_SetConfig>:
  * @param  huart pointer to a UART_HandleTypeDef structure that contains
  *                the configuration information for the specified UART module.
  * @retval None
  */
static void UART_SetConfig(UART_HandleTypeDef *huart)
{
 8001e90:	e92d 47f0 	stmdb	sp!, {r4, r5, r6, r7, r8, r9, sl, lr}
  assert_param(IS_UART_STOPBITS(huart->Init.StopBits));
  assert_param(IS_UART_PARITY(huart->Init.Parity));
  assert_param(IS_UART_MODE(huart->Init.Mode));

  /*-------------------------- USART CR2 Configuration -----------------------*/
  tmpreg = huart->Instance->CR2;
 8001e94:	6806      	ldr	r6, [r0, #0]

  /* Clear STOP[13:12] bits */
  tmpreg &= (uint32_t)~((uint32_t)USART_CR2_STOP);

  /* Configure the UART Stop Bits: Set STOP[13:12] bits according to huart->Init.StopBits value */
  tmpreg |= (uint32_t)huart->Init.StopBits;
 8001e96:	68c2      	ldr	r2, [r0, #12]
  tmpreg = huart->Instance->CR2;
 8001e98:	6933      	ldr	r3, [r6, #16]
  /* Configure the UART Word Length, Parity and mode: 
     Set the M bits according to huart->Init.WordLength value 
     Set PCE and PS bits according to huart->Init.Parity value
     Set TE and RE bits according to huart->Init.Mode value
     Set OVER8 bit according to huart->Init.OverSampling value */
  tmpreg |= (uint32_t)huart->Init.WordLength | huart->Init.Parity | huart->Init.Mode | huart->Init.OverSampling;
 8001e9a:	69c1      	ldr	r1, [r0, #28]
  tmpreg &= (uint32_t)~((uint32_t)USART_CR2_STOP);
 8001e9c:	f423 5340 	bic.w	r3, r3, #12288	; 0x3000
  tmpreg |= (uint32_t)huart->Init.StopBits;
 8001ea0:	4313      	orrs	r3, r2
  WRITE_REG(huart->Instance->CR2, (uint32_t)tmpreg);
 8001ea2:	6133      	str	r3, [r6, #16]
{
 8001ea4:	4604      	mov	r4, r0
  tmpreg |= (uint32_t)huart->Init.WordLength | huart->Init.Parity | huart->Init.Mode | huart->Init.OverSampling;
 8001ea6:	6883      	ldr	r3, [r0, #8]
 8001ea8:	6900      	ldr	r0, [r0, #16]
  tmpreg = huart->Instance->CR1;
 8001eaa:	68f2      	ldr	r2, [r6, #12]
  tmpreg |= (uint32_t)huart->Init.WordLength | huart->Init.Parity | huart->Init.Mode | huart->Init.OverSampling;
 8001eac:	4303      	orrs	r3, r0
 8001eae:	6960      	ldr	r0, [r4, #20]
  tmpreg &= (uint32_t)~((uint32_t)(USART_CR1_M | USART_CR1_PCE | USART_CR1_PS | USART_CR1_TE | \
 8001eb0:	f422 4216 	bic.w	r2, r2, #38400	; 0x9600
  tmpreg |= (uint32_t)huart->Init.WordLength | huart->Init.Parity | huart->Init.Mode | huart->Init.OverSampling;
 8001eb4:	4303      	orrs	r3, r0
  tmpreg &= (uint32_t)~((uint32_t)(USART_CR1_M | USART_CR1_PCE | USART_CR1_PS | USART_CR1_TE | \
 8001eb6:	f022 020c 	bic.w	r2, r2, #12
  tmpreg |= (uint32_t)huart->Init.WordLength | huart->Init.Parity | huart->Init.Mode | huart->Init.OverSampling;
 8001eba:	430b      	orrs	r3, r1
 8001ebc:	4313      	orrs	r3, r2
  
  /* Write to USART CR1 */
  WRITE_REG(huart->Instance->CR1, (uint32_t)tmpreg);
 8001ebe:	60f3      	str	r3, [r6, #12]
  
  /*-------------------------- USART CR3 Configuration -----------------------*/  
  tmpreg = huart->Instance->CR3;
 8001ec0:	6973      	ldr	r3, [r6, #20]
  
  /* Clear CTSE and RTSE bits */
  tmpreg &= (uint32_t)~((uint32_t)(USART_CR3_RTSE | USART_CR3_CTSE));
  
  /* Configure the UART HFC: Set CTSE and RTSE bits according to huart->Init.HwFlowCtl value */
  tmpreg |= huart->Init.HwFlowCtl;
 8001ec2:	69a2      	ldr	r2, [r4, #24]
  tmpreg &= (uint32_t)~((uint32_t)(USART_CR3_RTSE | USART_CR3_CTSE));
 8001ec4:	f423 7340 	bic.w	r3, r3, #768	; 0x300
  tmpreg |= huart->Init.HwFlowCtl;
 8001ec8:	4313      	orrs	r3, r2
  
  /* Write to USART CR3 */
  WRITE_REG(huart->Instance->CR3, (uint32_t)tmpreg);
  
  /* Check the Over Sampling */
  if(huart->Init.OverSampling == UART_OVERSAMPLING_8)
 8001eca:	f5b1 4f00 	cmp.w	r1, #32768	; 0x8000
  WRITE_REG(huart->Instance->CR3, (uint32_t)tmpreg);
 8001ece:	6173      	str	r3, [r6, #20]
 8001ed0:	4b7a      	ldr	r3, [pc, #488]	; (80020bc <UART_SetConfig+0x22c>)
  if(huart->Init.OverSampling == UART_OVERSAMPLING_8)
 8001ed2:	d17c      	bne.n	8001fce <UART_SetConfig+0x13e>
  {
    /*-------------------------- USART BRR Configuration ---------------------*/
#if defined(USART6) 
    if((huart->Instance == USART1) || (huart->Instance == USART6))
 8001ed4:	429e      	cmp	r6, r3
 8001ed6:	d003      	beq.n	8001ee0 <UART_SetConfig+0x50>
 8001ed8:	f503 6380 	add.w	r3, r3, #1024	; 0x400
 8001edc:	429e      	cmp	r6, r3
 8001ede:	d144      	bne.n	8001f6a <UART_SetConfig+0xda>
    {
      huart->Instance->BRR = UART_BRR_SAMPLING8(HAL_RCC_GetPCLK2Freq(), huart->Init.BaudRate);
 8001ee0:	f7ff fb6a 	bl	80015b8 <HAL_RCC_GetPCLK2Freq>
 8001ee4:	2519      	movs	r5, #25
 8001ee6:	fb05 f300 	mul.w	r3, r5, r0
 8001eea:	6860      	ldr	r0, [r4, #4]
 8001eec:	f04f 0964 	mov.w	r9, #100	; 0x64
 8001ef0:	0040      	lsls	r0, r0, #1
 8001ef2:	fbb3 f3f0 	udiv	r3, r3, r0
 8001ef6:	fbb3 f3f9 	udiv	r3, r3, r9
 8001efa:	ea4f 1803 	mov.w	r8, r3, lsl #4
 8001efe:	f7ff fb5b 	bl	80015b8 <HAL_RCC_GetPCLK2Freq>
 8001f02:	6863      	ldr	r3, [r4, #4]
 8001f04:	4368      	muls	r0, r5
 8001f06:	005b      	lsls	r3, r3, #1
 8001f08:	fbb0 f7f3 	udiv	r7, r0, r3
 8001f0c:	f7ff fb54 	bl	80015b8 <HAL_RCC_GetPCLK2Freq>
 8001f10:	6863      	ldr	r3, [r4, #4]
 8001f12:	4368      	muls	r0, r5
 8001f14:	005b      	lsls	r3, r3, #1
 8001f16:	fbb0 f3f3 	udiv	r3, r0, r3
 8001f1a:	fbb3 f3f9 	udiv	r3, r3, r9
 8001f1e:	fb09 7313 	mls	r3, r9, r3, r7
 8001f22:	00db      	lsls	r3, r3, #3
 8001f24:	3332      	adds	r3, #50	; 0x32
 8001f26:	fbb3 f3f9 	udiv	r3, r3, r9
 8001f2a:	005b      	lsls	r3, r3, #1
 8001f2c:	f403 77f8 	and.w	r7, r3, #496	; 0x1f0
 8001f30:	f7ff fb42 	bl	80015b8 <HAL_RCC_GetPCLK2Freq>
 8001f34:	6862      	ldr	r2, [r4, #4]
 8001f36:	4368      	muls	r0, r5
 8001f38:	0052      	lsls	r2, r2, #1
 8001f3a:	fbb0 faf2 	udiv	sl, r0, r2
 8001f3e:	f7ff fb3b 	bl	80015b8 <HAL_RCC_GetPCLK2Freq>
      huart->Instance->BRR = UART_BRR_SAMPLING8(HAL_RCC_GetPCLK2Freq(), huart->Init.BaudRate);
    }	
#endif /* USART6 */
    else
    {
      huart->Instance->BRR = UART_BRR_SAMPLING8(HAL_RCC_GetPCLK1Freq(), huart->Init.BaudRate);
 8001f42:	6863      	ldr	r3, [r4, #4]
 8001f44:	4368      	muls	r0, r5
 8001f46:	005b      	lsls	r3, r3, #1
 8001f48:	fbb0 f3f3 	udiv	r3, r0, r3
 8001f4c:	fbb3 f3f9 	udiv	r3, r3, r9
 8001f50:	fb09 a313 	mls	r3, r9, r3, sl
 8001f54:	00db      	lsls	r3, r3, #3
 8001f56:	3332      	adds	r3, #50	; 0x32
 8001f58:	fbb3 f3f9 	udiv	r3, r3, r9
 8001f5c:	f003 0307 	and.w	r3, r3, #7
 8001f60:	4443      	add	r3, r8
      huart->Instance->BRR = UART_BRR_SAMPLING16(HAL_RCC_GetPCLK2Freq(), huart->Init.BaudRate);
    }	
#endif /* USART6 */
    else
    {
      huart->Instance->BRR = UART_BRR_SAMPLING16(HAL_RCC_GetPCLK1Freq(), huart->Init.BaudRate);
 8001f62:	443b      	add	r3, r7
 8001f64:	60b3      	str	r3, [r6, #8]
 8001f66:	e8bd 87f0 	ldmia.w	sp!, {r4, r5, r6, r7, r8, r9, sl, pc}
      huart->Instance->BRR = UART_BRR_SAMPLING8(HAL_RCC_GetPCLK1Freq(), huart->Init.BaudRate);
 8001f6a:	f7ff fb15 	bl	8001598 <HAL_RCC_GetPCLK1Freq>
 8001f6e:	2519      	movs	r5, #25
 8001f70:	fb05 f300 	mul.w	r3, r5, r0
 8001f74:	6860      	ldr	r0, [r4, #4]
 8001f76:	f04f 0964 	mov.w	r9, #100	; 0x64
 8001f7a:	0040      	lsls	r0, r0, #1
 8001f7c:	fbb3 f3f0 	udiv	r3, r3, r0
 8001f80:	fbb3 f3f9 	udiv	r3, r3, r9
 8001f84:	ea4f 1803 	mov.w	r8, r3, lsl #4
 8001f88:	f7ff fb06 	bl	8001598 <HAL_RCC_GetPCLK1Freq>
 8001f8c:	6863      	ldr	r3, [r4, #4]
 8001f8e:	4368      	muls	r0, r5
 8001f90:	005b      	lsls	r3, r3, #1
 8001f92:	fbb0 f7f3 	udiv	r7, r0, r3
 8001f96:	f7ff faff 	bl	8001598 <HAL_RCC_GetPCLK1Freq>
 8001f9a:	6863      	ldr	r3, [r4, #4]
 8001f9c:	4368      	muls	r0, r5
 8001f9e:	005b      	lsls	r3, r3, #1
 8001fa0:	fbb0 f3f3 	udiv	r3, r0, r3
 8001fa4:	fbb3 f3f9 	udiv	r3, r3, r9
 8001fa8:	fb09 7313 	mls	r3, r9, r3, r7
 8001fac:	00db      	lsls	r3, r3, #3
 8001fae:	3332      	adds	r3, #50	; 0x32
 8001fb0:	fbb3 f3f9 	udiv	r3, r3, r9
 8001fb4:	005b      	lsls	r3, r3, #1
 8001fb6:	f403 77f8 	and.w	r7, r3, #496	; 0x1f0
 8001fba:	f7ff faed 	bl	8001598 <HAL_RCC_GetPCLK1Freq>
 8001fbe:	6862      	ldr	r2, [r4, #4]
 8001fc0:	4368      	muls	r0, r5
 8001fc2:	0052      	lsls	r2, r2, #1
 8001fc4:	fbb0 faf2 	udiv	sl, r0, r2
 8001fc8:	f7ff fae6 	bl	8001598 <HAL_RCC_GetPCLK1Freq>
 8001fcc:	e7b9      	b.n	8001f42 <UART_SetConfig+0xb2>
    if((huart->Instance == USART1) || (huart->Instance == USART6))
 8001fce:	429e      	cmp	r6, r3
 8001fd0:	d002      	beq.n	8001fd8 <UART_SetConfig+0x148>
 8001fd2:	4b3b      	ldr	r3, [pc, #236]	; (80020c0 <UART_SetConfig+0x230>)
 8001fd4:	429e      	cmp	r6, r3
 8001fd6:	d140      	bne.n	800205a <UART_SetConfig+0x1ca>
      huart->Instance->BRR = UART_BRR_SAMPLING16(HAL_RCC_GetPCLK2Freq(), huart->Init.BaudRate);
 8001fd8:	f7ff faee 	bl	80015b8 <HAL_RCC_GetPCLK2Freq>
 8001fdc:	6867      	ldr	r7, [r4, #4]
 8001fde:	2519      	movs	r5, #25
 8001fe0:	f04f 0964 	mov.w	r9, #100	; 0x64
 8001fe4:	fb05 f300 	mul.w	r3, r5, r0
 8001fe8:	00bf      	lsls	r7, r7, #2
 8001fea:	fbb3 f3f7 	udiv	r3, r3, r7
 8001fee:	fbb3 f3f9 	udiv	r3, r3, r9
 8001ff2:	011f      	lsls	r7, r3, #4
 8001ff4:	f7ff fae0 	bl	80015b8 <HAL_RCC_GetPCLK2Freq>
 8001ff8:	6863      	ldr	r3, [r4, #4]
 8001ffa:	4368      	muls	r0, r5
 8001ffc:	009b      	lsls	r3, r3, #2
 8001ffe:	fbb0 f8f3 	udiv	r8, r0, r3
 8002002:	f7ff fad9 	bl	80015b8 <HAL_RCC_GetPCLK2Freq>
 8002006:	6863      	ldr	r3, [r4, #4]
 8002008:	4368      	muls	r0, r5
 800200a:	009b      	lsls	r3, r3, #2
 800200c:	fbb0 f3f3 	udiv	r3, r0, r3
 8002010:	fbb3 f3f9 	udiv	r3, r3, r9
 8002014:	fb09 8313 	mls	r3, r9, r3, r8
 8002018:	011b      	lsls	r3, r3, #4
 800201a:	3332      	adds	r3, #50	; 0x32
 800201c:	fbb3 f3f9 	udiv	r3, r3, r9
 8002020:	f003 08f0 	and.w	r8, r3, #240	; 0xf0
 8002024:	f7ff fac8 	bl	80015b8 <HAL_RCC_GetPCLK2Freq>
 8002028:	6862      	ldr	r2, [r4, #4]
 800202a:	4368      	muls	r0, r5
 800202c:	0092      	lsls	r2, r2, #2
 800202e:	fbb0 faf2 	udiv	sl, r0, r2
 8002032:	f7ff fac1 	bl	80015b8 <HAL_RCC_GetPCLK2Freq>
      huart->Instance->BRR = UART_BRR_SAMPLING16(HAL_RCC_GetPCLK1Freq(), huart->Init.BaudRate);
 8002036:	6863      	ldr	r3, [r4, #4]
 8002038:	4368      	muls	r0, r5
 800203a:	009b      	lsls	r3, r3, #2
 800203c:	fbb0 f3f3 	udiv	r3, r0, r3
 8002040:	fbb3 f3f9 	udiv	r3, r3, r9
 8002044:	fb09 a313 	mls	r3, r9, r3, sl
 8002048:	011b      	lsls	r3, r3, #4
 800204a:	3332      	adds	r3, #50	; 0x32
 800204c:	fbb3 f3f9 	udiv	r3, r3, r9
 8002050:	f003 030f 	and.w	r3, r3, #15
 8002054:	ea43 0308 	orr.w	r3, r3, r8
 8002058:	e783      	b.n	8001f62 <UART_SetConfig+0xd2>
 800205a:	f7ff fa9d 	bl	8001598 <HAL_RCC_GetPCLK1Freq>
 800205e:	6867      	ldr	r7, [r4, #4]
 8002060:	2519      	movs	r5, #25
 8002062:	f04f 0964 	mov.w	r9, #100	; 0x64
 8002066:	fb05 f300 	mul.w	r3, r5, r0
 800206a:	00bf      	lsls	r7, r7, #2
 800206c:	fbb3 f3f7 	udiv	r3, r3, r7
 8002070:	fbb3 f3f9 	udiv	r3, r3, r9
 8002074:	011f      	lsls	r7, r3, #4
 8002076:	f7ff fa8f 	bl	8001598 <HAL_RCC_GetPCLK1Freq>
 800207a:	6863      	ldr	r3, [r4, #4]
 800207c:	4368      	muls	r0, r5
 800207e:	009b      	lsls	r3, r3, #2
 8002080:	fbb0 f8f3 	udiv	r8, r0, r3
 8002084:	f7ff fa88 	bl	8001598 <HAL_RCC_GetPCLK1Freq>
 8002088:	6863      	ldr	r3, [r4, #4]
 800208a:	4368      	muls	r0, r5
 800208c:	009b      	lsls	r3, r3, #2
 800208e:	fbb0 f3f3 	udiv	r3, r0, r3
 8002092:	fbb3 f3f9 	udiv	r3, r3, r9
 8002096:	fb09 8313 	mls	r3, r9, r3, r8
 800209a:	011b      	lsls	r3, r3, #4
 800209c:	3332      	adds	r3, #50	; 0x32
 800209e:	fbb3 f3f9 	udiv	r3, r3, r9
 80020a2:	f003 08f0 	and.w	r8, r3, #240	; 0xf0
 80020a6:	f7ff fa77 	bl	8001598 <HAL_RCC_GetPCLK1Freq>
 80020aa:	6862      	ldr	r2, [r4, #4]
 80020ac:	4368      	muls	r0, r5
 80020ae:	0092      	lsls	r2, r2, #2
 80020b0:	fbb0 faf2 	udiv	sl, r0, r2
 80020b4:	f7ff fa70 	bl	8001598 <HAL_RCC_GetPCLK1Freq>
 80020b8:	e7bd      	b.n	8002036 <UART_SetConfig+0x1a6>
 80020ba:	bf00      	nop
 80020bc:	40011000 	.word	0x40011000
 80020c0:	40011400 	.word	0x40011400

080020c4 <UART_WaitOnFlagUntilTimeout.constprop.3>:
static HAL_StatusTypeDef UART_WaitOnFlagUntilTimeout(UART_HandleTypeDef *huart, uint32_t Flag, FlagStatus Status, uint32_t Tickstart, uint32_t Timeout)
 80020c4:	b5f8      	push	{r3, r4, r5, r6, r7, lr}
 80020c6:	4604      	mov	r4, r0
 80020c8:	460e      	mov	r6, r1
 80020ca:	4617      	mov	r7, r2
 80020cc:	461d      	mov	r5, r3
  while((__HAL_UART_GET_FLAG(huart, Flag) ? SET : RESET) == Status) 
 80020ce:	6821      	ldr	r1, [r4, #0]
 80020d0:	680b      	ldr	r3, [r1, #0]
 80020d2:	ea36 0303 	bics.w	r3, r6, r3
 80020d6:	d101      	bne.n	80020dc <UART_WaitOnFlagUntilTimeout.constprop.3+0x18>
  return HAL_OK;
 80020d8:	2000      	movs	r0, #0
}
 80020da:	bdf8      	pop	{r3, r4, r5, r6, r7, pc}
    if(Timeout != HAL_MAX_DELAY)
 80020dc:	1c6b      	adds	r3, r5, #1
 80020de:	d0f7      	beq.n	80020d0 <UART_WaitOnFlagUntilTimeout.constprop.3+0xc>
      if((Timeout == 0U)||((HAL_GetTick() - Tickstart ) > Timeout))
 80020e0:	b995      	cbnz	r5, 8002108 <UART_WaitOnFlagUntilTimeout.constprop.3+0x44>
        CLEAR_BIT(huart->Instance->CR1, (USART_CR1_RXNEIE | USART_CR1_PEIE | USART_CR1_TXEIE));
 80020e2:	6823      	ldr	r3, [r4, #0]
 80020e4:	68da      	ldr	r2, [r3, #12]
 80020e6:	f422 72d0 	bic.w	r2, r2, #416	; 0x1a0
 80020ea:	60da      	str	r2, [r3, #12]
        CLEAR_BIT(huart->Instance->CR3, USART_CR3_EIE);
 80020ec:	695a      	ldr	r2, [r3, #20]
 80020ee:	f022 0201 	bic.w	r2, r2, #1
 80020f2:	615a      	str	r2, [r3, #20]
        huart->gState  = HAL_UART_STATE_READY;
 80020f4:	2320      	movs	r3, #32
 80020f6:	f884 3039 	strb.w	r3, [r4, #57]	; 0x39
        huart->RxState = HAL_UART_STATE_READY;
 80020fa:	f884 303a 	strb.w	r3, [r4, #58]	; 0x3a
        __HAL_UNLOCK(huart);
 80020fe:	2300      	movs	r3, #0
 8002100:	f884 3038 	strb.w	r3, [r4, #56]	; 0x38
 8002104:	2003      	movs	r0, #3
 8002106:	bdf8      	pop	{r3, r4, r5, r6, r7, pc}
      if((Timeout == 0U)||((HAL_GetTick() - Tickstart ) > Timeout))
 8002108:	f7fe fe3a 	bl	8000d80 <HAL_GetTick>
 800210c:	1bc0      	subs	r0, r0, r7
 800210e:	4285      	cmp	r5, r0
 8002110:	d2dd      	bcs.n	80020ce <UART_WaitOnFlagUntilTimeout.constprop.3+0xa>
 8002112:	e7e6      	b.n	80020e2 <UART_WaitOnFlagUntilTimeout.constprop.3+0x1e>

08002114 <HAL_UART_Init>:
{
 8002114:	b510      	push	{r4, lr}
  if(huart == NULL)
 8002116:	4604      	mov	r4, r0
 8002118:	b340      	cbz	r0, 800216c <HAL_UART_Init+0x58>
  if(huart->gState == HAL_UART_STATE_RESET)
 800211a:	f890 3039 	ldrb.w	r3, [r0, #57]	; 0x39
 800211e:	f003 02ff 	and.w	r2, r3, #255	; 0xff
 8002122:	b91b      	cbnz	r3, 800212c <HAL_UART_Init+0x18>
    huart->Lock = HAL_UNLOCKED;
 8002124:	f880 2038 	strb.w	r2, [r0, #56]	; 0x38
    HAL_UART_MspInit(huart);
 8002128:	f001 f90e 	bl	8003348 <HAL_UART_MspInit>
  __HAL_UART_DISABLE(huart);
 800212c:	6822      	ldr	r2, [r4, #0]
  huart->gState = HAL_UART_STATE_BUSY;
 800212e:	2324      	movs	r3, #36	; 0x24
 8002130:	f884 3039 	strb.w	r3, [r4, #57]	; 0x39
  __HAL_UART_DISABLE(huart);
 8002134:	68d3      	ldr	r3, [r2, #12]
 8002136:	f423 5300 	bic.w	r3, r3, #8192	; 0x2000
 800213a:	60d3      	str	r3, [r2, #12]
  UART_SetConfig(huart);
 800213c:	4620      	mov	r0, r4
 800213e:	f7ff fea7 	bl	8001e90 <UART_SetConfig>
  CLEAR_BIT(huart->Instance->CR2, (USART_CR2_LINEN | USART_CR2_CLKEN));
 8002142:	6823      	ldr	r3, [r4, #0]
 8002144:	691a      	ldr	r2, [r3, #16]
 8002146:	f422 4290 	bic.w	r2, r2, #18432	; 0x4800
 800214a:	611a      	str	r2, [r3, #16]
  CLEAR_BIT(huart->Instance->CR3, (USART_CR3_SCEN | USART_CR3_HDSEL | USART_CR3_IREN));
 800214c:	695a      	ldr	r2, [r3, #20]
 800214e:	f022 022a 	bic.w	r2, r2, #42	; 0x2a
 8002152:	615a      	str	r2, [r3, #20]
  __HAL_UART_ENABLE(huart);
 8002154:	68da      	ldr	r2, [r3, #12]
 8002156:	f442 5200 	orr.w	r2, r2, #8192	; 0x2000
 800215a:	60da      	str	r2, [r3, #12]
  huart->ErrorCode = HAL_UART_ERROR_NONE;
 800215c:	2000      	movs	r0, #0
  huart->gState= HAL_UART_STATE_READY;
 800215e:	2320      	movs	r3, #32
  huart->ErrorCode = HAL_UART_ERROR_NONE;
 8002160:	63e0      	str	r0, [r4, #60]	; 0x3c
  huart->gState= HAL_UART_STATE_READY;
 8002162:	f884 3039 	strb.w	r3, [r4, #57]	; 0x39
  huart->RxState= HAL_UART_STATE_READY;
 8002166:	f884 303a 	strb.w	r3, [r4, #58]	; 0x3a
  return HAL_OK;
 800216a:	bd10      	pop	{r4, pc}
    return HAL_ERROR;
 800216c:	2001      	movs	r0, #1
}
 800216e:	bd10      	pop	{r4, pc}

08002170 <HAL_UART_Transmit>:
{
 8002170:	e92d 41f0 	stmdb	sp!, {r4, r5, r6, r7, r8, lr}
 8002174:	461f      	mov	r7, r3
  if(huart->gState == HAL_UART_STATE_READY) 
 8002176:	f890 3039 	ldrb.w	r3, [r0, #57]	; 0x39
 800217a:	2b20      	cmp	r3, #32
{
 800217c:	4604      	mov	r4, r0
 800217e:	460d      	mov	r5, r1
 8002180:	4690      	mov	r8, r2
  if(huart->gState == HAL_UART_STATE_READY) 
 8002182:	d14f      	bne.n	8002224 <HAL_UART_Transmit+0xb4>
    if((pData == NULL ) || (Size == 0)) 
 8002184:	2900      	cmp	r1, #0
 8002186:	d04a      	beq.n	800221e <HAL_UART_Transmit+0xae>
 8002188:	2a00      	cmp	r2, #0
 800218a:	d048      	beq.n	800221e <HAL_UART_Transmit+0xae>
    __HAL_LOCK(huart);
 800218c:	f890 3038 	ldrb.w	r3, [r0, #56]	; 0x38
 8002190:	2b01      	cmp	r3, #1
 8002192:	d047      	beq.n	8002224 <HAL_UART_Transmit+0xb4>
 8002194:	2301      	movs	r3, #1
 8002196:	f880 3038 	strb.w	r3, [r0, #56]	; 0x38
    huart->ErrorCode = HAL_UART_ERROR_NONE;
 800219a:	2300      	movs	r3, #0
 800219c:	63c3      	str	r3, [r0, #60]	; 0x3c
    huart->gState = HAL_UART_STATE_BUSY_TX;
 800219e:	2321      	movs	r3, #33	; 0x21
 80021a0:	f880 3039 	strb.w	r3, [r0, #57]	; 0x39
    tickstart = HAL_GetTick();
 80021a4:	f7fe fdec 	bl	8000d80 <HAL_GetTick>
    huart->TxXferSize = Size;
 80021a8:	f8a4 8024 	strh.w	r8, [r4, #36]	; 0x24
    tickstart = HAL_GetTick();
 80021ac:	4606      	mov	r6, r0
    huart->TxXferCount = Size;
 80021ae:	f8a4 8026 	strh.w	r8, [r4, #38]	; 0x26
    while(huart->TxXferCount > 0U)
 80021b2:	8ce3      	ldrh	r3, [r4, #38]	; 0x26
 80021b4:	b29b      	uxth	r3, r3
 80021b6:	b96b      	cbnz	r3, 80021d4 <HAL_UART_Transmit+0x64>
    if(UART_WaitOnFlagUntilTimeout(huart, UART_FLAG_TC, RESET, tickstart, Timeout) != HAL_OK)
 80021b8:	463b      	mov	r3, r7
 80021ba:	4632      	mov	r2, r6
 80021bc:	2140      	movs	r1, #64	; 0x40
 80021be:	4620      	mov	r0, r4
 80021c0:	f7ff ff80 	bl	80020c4 <UART_WaitOnFlagUntilTimeout.constprop.3>
 80021c4:	b9b0      	cbnz	r0, 80021f4 <HAL_UART_Transmit+0x84>
      huart->gState = HAL_UART_STATE_READY;
 80021c6:	2320      	movs	r3, #32
 80021c8:	f884 3039 	strb.w	r3, [r4, #57]	; 0x39
    __HAL_UNLOCK(huart);
 80021cc:	f884 0038 	strb.w	r0, [r4, #56]	; 0x38
    return HAL_OK;
 80021d0:	e8bd 81f0 	ldmia.w	sp!, {r4, r5, r6, r7, r8, pc}
      huart->TxXferCount--;
 80021d4:	8ce3      	ldrh	r3, [r4, #38]	; 0x26
 80021d6:	3b01      	subs	r3, #1
 80021d8:	b29b      	uxth	r3, r3
 80021da:	84e3      	strh	r3, [r4, #38]	; 0x26
      if(huart->Init.WordLength == UART_WORDLENGTH_9B)
 80021dc:	68a3      	ldr	r3, [r4, #8]
 80021de:	f5b3 5f80 	cmp.w	r3, #4096	; 0x1000
        if(UART_WaitOnFlagUntilTimeout(huart, UART_FLAG_TXE, RESET, tickstart, Timeout) != HAL_OK)
 80021e2:	4632      	mov	r2, r6
 80021e4:	463b      	mov	r3, r7
 80021e6:	f04f 0180 	mov.w	r1, #128	; 0x80
 80021ea:	4620      	mov	r0, r4
      if(huart->Init.WordLength == UART_WORDLENGTH_9B)
 80021ec:	d10e      	bne.n	800220c <HAL_UART_Transmit+0x9c>
        if(UART_WaitOnFlagUntilTimeout(huart, UART_FLAG_TXE, RESET, tickstart, Timeout) != HAL_OK)
 80021ee:	f7ff ff69 	bl	80020c4 <UART_WaitOnFlagUntilTimeout.constprop.3>
 80021f2:	b110      	cbz	r0, 80021fa <HAL_UART_Transmit+0x8a>
          return HAL_TIMEOUT;
 80021f4:	2003      	movs	r0, #3
 80021f6:	e8bd 81f0 	ldmia.w	sp!, {r4, r5, r6, r7, r8, pc}
        huart->Instance->DR = (*tmp & (uint16_t)0x01FF);
 80021fa:	882b      	ldrh	r3, [r5, #0]
 80021fc:	6822      	ldr	r2, [r4, #0]
 80021fe:	f3c3 0308 	ubfx	r3, r3, #0, #9
 8002202:	6053      	str	r3, [r2, #4]
        if(huart->Init.Parity == UART_PARITY_NONE)
 8002204:	6923      	ldr	r3, [r4, #16]
 8002206:	b943      	cbnz	r3, 800221a <HAL_UART_Transmit+0xaa>
          pData +=2U;
 8002208:	3502      	adds	r5, #2
 800220a:	e7d2      	b.n	80021b2 <HAL_UART_Transmit+0x42>
        if(UART_WaitOnFlagUntilTimeout(huart, UART_FLAG_TXE, RESET, tickstart, Timeout) != HAL_OK)
 800220c:	f7ff ff5a 	bl	80020c4 <UART_WaitOnFlagUntilTimeout.constprop.3>
 8002210:	2800      	cmp	r0, #0
 8002212:	d1ef      	bne.n	80021f4 <HAL_UART_Transmit+0x84>
        huart->Instance->DR = (*pData++ & (uint8_t)0xFF);
 8002214:	6823      	ldr	r3, [r4, #0]
 8002216:	782a      	ldrb	r2, [r5, #0]
 8002218:	605a      	str	r2, [r3, #4]
 800221a:	3501      	adds	r5, #1
 800221c:	e7c9      	b.n	80021b2 <HAL_UART_Transmit+0x42>
      return  HAL_ERROR;
 800221e:	2001      	movs	r0, #1
 8002220:	e8bd 81f0 	ldmia.w	sp!, {r4, r5, r6, r7, r8, pc}
    return HAL_BUSY;
 8002224:	2002      	movs	r0, #2
}
 8002226:	e8bd 81f0 	ldmia.w	sp!, {r4, r5, r6, r7, r8, pc}

0800222a <HAL_UART_Transmit_IT>:
  if(huart->gState == HAL_UART_STATE_READY)
 800222a:	f890 3039 	ldrb.w	r3, [r0, #57]	; 0x39
 800222e:	2b20      	cmp	r3, #32
 8002230:	d118      	bne.n	8002264 <HAL_UART_Transmit_IT+0x3a>
    if((pData == NULL ) || (Size == 0)) 
 8002232:	b1a9      	cbz	r1, 8002260 <HAL_UART_Transmit_IT+0x36>
 8002234:	b1a2      	cbz	r2, 8002260 <HAL_UART_Transmit_IT+0x36>
    __HAL_LOCK(huart);
 8002236:	f890 3038 	ldrb.w	r3, [r0, #56]	; 0x38
 800223a:	2b01      	cmp	r3, #1
 800223c:	d012      	beq.n	8002264 <HAL_UART_Transmit_IT+0x3a>
    huart->TxXferCount = Size;
 800223e:	84c2      	strh	r2, [r0, #38]	; 0x26
    huart->pTxBuffPtr = pData;
 8002240:	6201      	str	r1, [r0, #32]
    huart->TxXferSize = Size;
 8002242:	8482      	strh	r2, [r0, #36]	; 0x24
    huart->ErrorCode = HAL_UART_ERROR_NONE;
 8002244:	2300      	movs	r3, #0
    SET_BIT(huart->Instance->CR1, USART_CR1_TXEIE);
 8002246:	6801      	ldr	r1, [r0, #0]
    huart->ErrorCode = HAL_UART_ERROR_NONE;
 8002248:	63c3      	str	r3, [r0, #60]	; 0x3c
    huart->gState = HAL_UART_STATE_BUSY_TX;
 800224a:	2221      	movs	r2, #33	; 0x21
 800224c:	f880 2039 	strb.w	r2, [r0, #57]	; 0x39
    SET_BIT(huart->Instance->CR1, USART_CR1_TXEIE);
 8002250:	68ca      	ldr	r2, [r1, #12]
    __HAL_UNLOCK(huart);
 8002252:	f880 3038 	strb.w	r3, [r0, #56]	; 0x38
    SET_BIT(huart->Instance->CR1, USART_CR1_TXEIE);
 8002256:	f042 0280 	orr.w	r2, r2, #128	; 0x80
 800225a:	60ca      	str	r2, [r1, #12]
    return HAL_OK;
 800225c:	4618      	mov	r0, r3
 800225e:	4770      	bx	lr
      return HAL_ERROR;
 8002260:	2001      	movs	r0, #1
 8002262:	4770      	bx	lr
    return HAL_BUSY;   
 8002264:	2002      	movs	r0, #2
}
 8002266:	4770      	bx	lr

08002268 <HAL_UART_Receive_DMA>:
{  
 8002268:	4613      	mov	r3, r2
  if(huart->RxState == HAL_UART_STATE_READY) 
 800226a:	f890 203a 	ldrb.w	r2, [r0, #58]	; 0x3a
 800226e:	2a20      	cmp	r2, #32
{  
 8002270:	b573      	push	{r0, r1, r4, r5, r6, lr}
 8002272:	4605      	mov	r5, r0
  if(huart->RxState == HAL_UART_STATE_READY) 
 8002274:	d138      	bne.n	80022e8 <HAL_UART_Receive_DMA+0x80>
    if((pData == NULL ) || (Size == 0)) 
 8002276:	2900      	cmp	r1, #0
 8002278:	d034      	beq.n	80022e4 <HAL_UART_Receive_DMA+0x7c>
 800227a:	2b00      	cmp	r3, #0
 800227c:	d032      	beq.n	80022e4 <HAL_UART_Receive_DMA+0x7c>
    __HAL_LOCK(huart);
 800227e:	f890 2038 	ldrb.w	r2, [r0, #56]	; 0x38
 8002282:	2a01      	cmp	r2, #1
 8002284:	d030      	beq.n	80022e8 <HAL_UART_Receive_DMA+0x80>
 8002286:	2201      	movs	r2, #1
    huart->ErrorCode = HAL_UART_ERROR_NONE;
 8002288:	2400      	movs	r4, #0
    __HAL_LOCK(huart);
 800228a:	f880 2038 	strb.w	r2, [r0, #56]	; 0x38
    huart->RxState = HAL_UART_STATE_BUSY_RX;
 800228e:	2222      	movs	r2, #34	; 0x22
    huart->ErrorCode = HAL_UART_ERROR_NONE;
 8002290:	63c4      	str	r4, [r0, #60]	; 0x3c
    huart->pRxBuffPtr = pData;
 8002292:	6281      	str	r1, [r0, #40]	; 0x28
    huart->RxXferSize = Size;
 8002294:	8583      	strh	r3, [r0, #44]	; 0x2c
    huart->RxState = HAL_UART_STATE_BUSY_RX;
 8002296:	f880 203a 	strb.w	r2, [r0, #58]	; 0x3a
    huart->hdmarx->XferCpltCallback = UART_DMAReceiveCplt;
 800229a:	6b40      	ldr	r0, [r0, #52]	; 0x34
 800229c:	4a13      	ldr	r2, [pc, #76]	; (80022ec <HAL_UART_Receive_DMA+0x84>)
 800229e:	63c2      	str	r2, [r0, #60]	; 0x3c
    HAL_DMA_Start_IT(huart->hdmarx, (uint32_t)&huart->Instance->DR, *(uint32_t*)tmp, Size);
 80022a0:	682e      	ldr	r6, [r5, #0]
    huart->hdmarx->XferHalfCpltCallback = UART_DMARxHalfCplt;
 80022a2:	4a13      	ldr	r2, [pc, #76]	; (80022f0 <HAL_UART_Receive_DMA+0x88>)
 80022a4:	6402      	str	r2, [r0, #64]	; 0x40
    huart->hdmarx->XferErrorCallback = UART_DMAError;
 80022a6:	4a13      	ldr	r2, [pc, #76]	; (80022f4 <HAL_UART_Receive_DMA+0x8c>)
 80022a8:	64c2      	str	r2, [r0, #76]	; 0x4c
    huart->hdmarx->XferAbortCallback = NULL;
 80022aa:	6504      	str	r4, [r0, #80]	; 0x50
    HAL_DMA_Start_IT(huart->hdmarx, (uint32_t)&huart->Instance->DR, *(uint32_t*)tmp, Size);
 80022ac:	460a      	mov	r2, r1
 80022ae:	1d31      	adds	r1, r6, #4
 80022b0:	f7fe fe76 	bl	8000fa0 <HAL_DMA_Start_IT>
    __HAL_UART_CLEAR_OREFLAG(huart);
 80022b4:	682b      	ldr	r3, [r5, #0]
 80022b6:	9401      	str	r4, [sp, #4]
 80022b8:	681a      	ldr	r2, [r3, #0]
 80022ba:	9201      	str	r2, [sp, #4]
 80022bc:	685a      	ldr	r2, [r3, #4]
 80022be:	9201      	str	r2, [sp, #4]
 80022c0:	9a01      	ldr	r2, [sp, #4]
    SET_BIT(huart->Instance->CR1, USART_CR1_PEIE);
 80022c2:	68da      	ldr	r2, [r3, #12]
    __HAL_UNLOCK(huart);
 80022c4:	f885 4038 	strb.w	r4, [r5, #56]	; 0x38
    SET_BIT(huart->Instance->CR1, USART_CR1_PEIE);
 80022c8:	f442 7280 	orr.w	r2, r2, #256	; 0x100
 80022cc:	60da      	str	r2, [r3, #12]
    SET_BIT(huart->Instance->CR3, USART_CR3_EIE);
 80022ce:	695a      	ldr	r2, [r3, #20]
 80022d0:	f042 0201 	orr.w	r2, r2, #1
 80022d4:	615a      	str	r2, [r3, #20]
    SET_BIT(huart->Instance->CR3, USART_CR3_DMAR);
 80022d6:	695a      	ldr	r2, [r3, #20]
 80022d8:	f042 0240 	orr.w	r2, r2, #64	; 0x40
 80022dc:	615a      	str	r2, [r3, #20]
    return HAL_OK;
 80022de:	4620      	mov	r0, r4
}
 80022e0:	b002      	add	sp, #8
 80022e2:	bd70      	pop	{r4, r5, r6, pc}
      return HAL_ERROR;
 80022e4:	2001      	movs	r0, #1
 80022e6:	e7fb      	b.n	80022e0 <HAL_UART_Receive_DMA+0x78>
    return HAL_BUSY; 
 80022e8:	2002      	movs	r0, #2
 80022ea:	e7f9      	b.n	80022e0 <HAL_UART_Receive_DMA+0x78>
 80022ec:	080022fb 	.word	0x080022fb
 80022f0:	08002335 	.word	0x08002335
 80022f4:	08002341 	.word	0x08002341

080022f8 <HAL_UART_RxCpltCallback>:
 80022f8:	4770      	bx	lr

080022fa <UART_DMAReceiveCplt>:
{
 80022fa:	b508      	push	{r3, lr}
  if((hdma->Instance->CR & DMA_SxCR_CIRC) == 0U)
 80022fc:	6803      	ldr	r3, [r0, #0]
  UART_HandleTypeDef* huart = ( UART_HandleTypeDef* )((DMA_HandleTypeDef* )hdma)->Parent;
 80022fe:	6b82      	ldr	r2, [r0, #56]	; 0x38
  if((hdma->Instance->CR & DMA_SxCR_CIRC) == 0U)
 8002300:	681b      	ldr	r3, [r3, #0]
 8002302:	f413 7380 	ands.w	r3, r3, #256	; 0x100
 8002306:	d110      	bne.n	800232a <UART_DMAReceiveCplt+0x30>
    huart->RxXferCount = 0U;
 8002308:	85d3      	strh	r3, [r2, #46]	; 0x2e
    CLEAR_BIT(huart->Instance->CR1, USART_CR1_PEIE);
 800230a:	6813      	ldr	r3, [r2, #0]
 800230c:	68d9      	ldr	r1, [r3, #12]
 800230e:	f421 7180 	bic.w	r1, r1, #256	; 0x100
 8002312:	60d9      	str	r1, [r3, #12]
    CLEAR_BIT(huart->Instance->CR3, USART_CR3_EIE);
 8002314:	6959      	ldr	r1, [r3, #20]
 8002316:	f021 0101 	bic.w	r1, r1, #1
 800231a:	6159      	str	r1, [r3, #20]
    CLEAR_BIT(huart->Instance->CR3, USART_CR3_DMAR);
 800231c:	6959      	ldr	r1, [r3, #20]
 800231e:	f021 0140 	bic.w	r1, r1, #64	; 0x40
 8002322:	6159      	str	r1, [r3, #20]
    huart->RxState = HAL_UART_STATE_READY;
 8002324:	2320      	movs	r3, #32
 8002326:	f882 303a 	strb.w	r3, [r2, #58]	; 0x3a
  HAL_UART_RxCpltCallback(huart);
 800232a:	4610      	mov	r0, r2
 800232c:	f7ff ffe4 	bl	80022f8 <HAL_UART_RxCpltCallback>
 8002330:	bd08      	pop	{r3, pc}

08002332 <HAL_UART_RxHalfCpltCallback>:
 8002332:	4770      	bx	lr

08002334 <UART_DMARxHalfCplt>:
{
 8002334:	b508      	push	{r3, lr}
  HAL_UART_RxHalfCpltCallback(huart); 
 8002336:	6b80      	ldr	r0, [r0, #56]	; 0x38
 8002338:	f7ff fffb 	bl	8002332 <HAL_UART_RxHalfCpltCallback>
 800233c:	bd08      	pop	{r3, pc}

0800233e <HAL_UART_ErrorCallback>:
 800233e:	4770      	bx	lr

08002340 <UART_DMAError>:
  UART_HandleTypeDef* huart = ( UART_HandleTypeDef* )((DMA_HandleTypeDef* )hdma)->Parent;
 8002340:	6b81      	ldr	r1, [r0, #56]	; 0x38
{
 8002342:	b508      	push	{r3, lr}
  dmarequest = HAL_IS_BIT_SET(huart->Instance->CR3, USART_CR3_DMAT);
 8002344:	680b      	ldr	r3, [r1, #0]
 8002346:	695a      	ldr	r2, [r3, #20]
  if((huart->gState == HAL_UART_STATE_BUSY_TX) && dmarequest)
 8002348:	f891 0039 	ldrb.w	r0, [r1, #57]	; 0x39
 800234c:	2821      	cmp	r0, #33	; 0x21
 800234e:	d10a      	bne.n	8002366 <UART_DMAError+0x26>
 8002350:	0612      	lsls	r2, r2, #24
 8002352:	d508      	bpl.n	8002366 <UART_DMAError+0x26>
    huart->TxXferCount = 0U;
 8002354:	2200      	movs	r2, #0
 8002356:	84ca      	strh	r2, [r1, #38]	; 0x26
  CLEAR_BIT(huart->Instance->CR1, (USART_CR1_TXEIE | USART_CR1_TCIE));
 8002358:	68da      	ldr	r2, [r3, #12]
 800235a:	f022 02c0 	bic.w	r2, r2, #192	; 0xc0
 800235e:	60da      	str	r2, [r3, #12]
  huart->gState = HAL_UART_STATE_READY;
 8002360:	2220      	movs	r2, #32
 8002362:	f881 2039 	strb.w	r2, [r1, #57]	; 0x39
  dmarequest = HAL_IS_BIT_SET(huart->Instance->CR3, USART_CR3_DMAR); 
 8002366:	695b      	ldr	r3, [r3, #20]
  if((huart->RxState == HAL_UART_STATE_BUSY_RX) && dmarequest)
 8002368:	f891 203a 	ldrb.w	r2, [r1, #58]	; 0x3a
 800236c:	2a22      	cmp	r2, #34	; 0x22
 800236e:	d106      	bne.n	800237e <UART_DMAError+0x3e>
 8002370:	065b      	lsls	r3, r3, #25
 8002372:	d504      	bpl.n	800237e <UART_DMAError+0x3e>
    huart->RxXferCount = 0U;
 8002374:	2300      	movs	r3, #0
 8002376:	85cb      	strh	r3, [r1, #46]	; 0x2e
    UART_EndRxTransfer(huart);
 8002378:	4608      	mov	r0, r1
 800237a:	f7ff fd7b 	bl	8001e74 <UART_EndRxTransfer>
  huart->ErrorCode |= HAL_UART_ERROR_DMA;
 800237e:	6bcb      	ldr	r3, [r1, #60]	; 0x3c
 8002380:	f043 0310 	orr.w	r3, r3, #16
 8002384:	63cb      	str	r3, [r1, #60]	; 0x3c
  HAL_UART_ErrorCallback(huart);
 8002386:	4608      	mov	r0, r1
 8002388:	f7ff ffd9 	bl	800233e <HAL_UART_ErrorCallback>
 800238c:	bd08      	pop	{r3, pc}
	...

08002390 <G01>:
			}
			memset(temp,0x00,sizeof(HGCodeDataControl_t));
		}
	}
}
void G01(){
 8002390:	b508      	push	{r3, lr}

	STMotorGoMilli(&STMotorDevices[0],temp->HGCodeParameter.A);
 8002392:	4b07      	ldr	r3, [pc, #28]	; (80023b0 <G01+0x20>)
 8002394:	4807      	ldr	r0, [pc, #28]	; (80023b4 <G01+0x24>)
 8002396:	681b      	ldr	r3, [r3, #0]
 8002398:	ed93 0b02 	vldr	d0, [r3, #8]
 800239c:	f000 fbf0 	bl	8002b80 <STMotorGoMilli>
	//STMotorWaitingActivate(&STMotorDevices[0],0);
	HAL_UART_Transmit_IT(HGCodeControl.HGCodeUartHandle,(uint8_t*)"G01 OK",6);
 80023a0:	4b05      	ldr	r3, [pc, #20]	; (80023b8 <G01+0x28>)
 80023a2:	4906      	ldr	r1, [pc, #24]	; (80023bc <G01+0x2c>)
 80023a4:	6818      	ldr	r0, [r3, #0]
 80023a6:	2206      	movs	r2, #6
}
 80023a8:	e8bd 4008 	ldmia.w	sp!, {r3, lr}
	HAL_UART_Transmit_IT(HGCodeControl.HGCodeUartHandle,(uint8_t*)"G01 OK",6);
 80023ac:	f7ff bf3d 	b.w	800222a <HAL_UART_Transmit_IT>
 80023b0:	20000044 	.word	0x20000044
 80023b4:	20000490 	.word	0x20000490
 80023b8:	20000240 	.word	0x20000240
 80023bc:	08003518 	.word	0x08003518

080023c0 <G28>:
}
void G27(){
	STMotorGoHome(&STMotorDevices[0]);
	HAL_UART_Transmit_IT(HGCodeControl.HGCodeUartHandle,(uint8_t*)"G27 OK",6);
}
void G28(){
 80023c0:	b508      	push	{r3, lr}

	STMotorAutoHome(&STMotorDevices[0],0);
 80023c2:	2100      	movs	r1, #0
 80023c4:	4805      	ldr	r0, [pc, #20]	; (80023dc <G28+0x1c>)
 80023c6:	f000 fbc9 	bl	8002b5c <STMotorAutoHome>
	//STMotorWaitingActivate(&STMotorDevices[0],0);
	HAL_UART_Transmit_IT(HGCodeControl.HGCodeUartHandle,(uint8_t*)"G28 OK",6);
 80023ca:	4b05      	ldr	r3, [pc, #20]	; (80023e0 <G28+0x20>)
 80023cc:	4905      	ldr	r1, [pc, #20]	; (80023e4 <G28+0x24>)
 80023ce:	6818      	ldr	r0, [r3, #0]
 80023d0:	2206      	movs	r2, #6

}
 80023d2:	e8bd 4008 	ldmia.w	sp!, {r3, lr}
	HAL_UART_Transmit_IT(HGCodeControl.HGCodeUartHandle,(uint8_t*)"G28 OK",6);
 80023d6:	f7ff bf28 	b.w	800222a <HAL_UART_Transmit_IT>
 80023da:	bf00      	nop
 80023dc:	20000490 	.word	0x20000490
 80023e0:	20000240 	.word	0x20000240
 80023e4:	0800351f 	.word	0x0800351f

080023e8 <H10>:
	return;
}
void H05(){
	return;
}
void H10(){ //UV LED OFF
 80023e8:	b508      	push	{r3, lr}
	HAL_GPIO_WritePin(UV_LCD_GPIO_Port,UV_LCD_Pin,GPIO_PIN_RESET);
 80023ea:	2200      	movs	r2, #0
 80023ec:	f44f 4100 	mov.w	r1, #32768	; 0x8000
 80023f0:	4805      	ldr	r0, [pc, #20]	; (8002408 <H10+0x20>)
 80023f2:	f7fe ff89 	bl	8001308 <HAL_GPIO_WritePin>
	HAL_UART_Transmit_IT(HGCodeControl.HGCodeUartHandle,(uint8_t*)"H10 OK",6);
 80023f6:	4b05      	ldr	r3, [pc, #20]	; (800240c <H10+0x24>)
 80023f8:	4905      	ldr	r1, [pc, #20]	; (8002410 <H10+0x28>)
 80023fa:	6818      	ldr	r0, [r3, #0]
 80023fc:	2206      	movs	r2, #6
}
 80023fe:	e8bd 4008 	ldmia.w	sp!, {r3, lr}
	HAL_UART_Transmit_IT(HGCodeControl.HGCodeUartHandle,(uint8_t*)"H10 OK",6);
 8002402:	f7ff bf12 	b.w	800222a <HAL_UART_Transmit_IT>
 8002406:	bf00      	nop
 8002408:	40020400 	.word	0x40020400
 800240c:	20000240 	.word	0x20000240
 8002410:	08003526 	.word	0x08003526

08002414 <H11>:
void H11(){ //UV LED ON
 8002414:	b508      	push	{r3, lr}
	HAL_GPIO_WritePin(UV_LCD_GPIO_Port,UV_LCD_Pin,GPIO_PIN_SET);
 8002416:	2201      	movs	r2, #1
 8002418:	f44f 4100 	mov.w	r1, #32768	; 0x8000
 800241c:	4805      	ldr	r0, [pc, #20]	; (8002434 <H11+0x20>)
 800241e:	f7fe ff73 	bl	8001308 <HAL_GPIO_WritePin>
	HAL_UART_Transmit_IT(HGCodeControl.HGCodeUartHandle,(uint8_t*)"H11 OK",6);
 8002422:	4b05      	ldr	r3, [pc, #20]	; (8002438 <H11+0x24>)
 8002424:	4905      	ldr	r1, [pc, #20]	; (800243c <H11+0x28>)
 8002426:	6818      	ldr	r0, [r3, #0]
 8002428:	2206      	movs	r2, #6
}
 800242a:	e8bd 4008 	ldmia.w	sp!, {r3, lr}
	HAL_UART_Transmit_IT(HGCodeControl.HGCodeUartHandle,(uint8_t*)"H11 OK",6);
 800242e:	f7ff befc 	b.w	800222a <HAL_UART_Transmit_IT>
 8002432:	bf00      	nop
 8002434:	40020400 	.word	0x40020400
 8002438:	20000240 	.word	0x20000240
 800243c:	0800352d 	.word	0x0800352d

08002440 <H20>:
void H20(){ //UV COOLER OFF
 8002440:	b508      	push	{r3, lr}
	HAL_GPIO_WritePin(COOLING_FAN_GPIO_Port,COOLING_FAN_Pin,GPIO_PIN_RESET);
 8002442:	2200      	movs	r2, #0
 8002444:	f44f 4180 	mov.w	r1, #16384	; 0x4000
 8002448:	4805      	ldr	r0, [pc, #20]	; (8002460 <H20+0x20>)
 800244a:	f7fe ff5d 	bl	8001308 <HAL_GPIO_WritePin>
	HAL_UART_Transmit_IT(HGCodeControl.HGCodeUartHandle,(uint8_t*)"H20 OK",6);
 800244e:	4b05      	ldr	r3, [pc, #20]	; (8002464 <H20+0x24>)
 8002450:	4905      	ldr	r1, [pc, #20]	; (8002468 <H20+0x28>)
 8002452:	6818      	ldr	r0, [r3, #0]
 8002454:	2206      	movs	r2, #6
}
 8002456:	e8bd 4008 	ldmia.w	sp!, {r3, lr}
	HAL_UART_Transmit_IT(HGCodeControl.HGCodeUartHandle,(uint8_t*)"H20 OK",6);
 800245a:	f7ff bee6 	b.w	800222a <HAL_UART_Transmit_IT>
 800245e:	bf00      	nop
 8002460:	40020400 	.word	0x40020400
 8002464:	20000240 	.word	0x20000240
 8002468:	08003534 	.word	0x08003534

0800246c <H21>:
void H21(){ //UV COOLER ON
 800246c:	b508      	push	{r3, lr}
	HAL_GPIO_WritePin(COOLING_FAN_GPIO_Port,COOLING_FAN_Pin,GPIO_PIN_SET);
 800246e:	2201      	movs	r2, #1
 8002470:	f44f 4180 	mov.w	r1, #16384	; 0x4000
 8002474:	4805      	ldr	r0, [pc, #20]	; (800248c <H21+0x20>)
 8002476:	f7fe ff47 	bl	8001308 <HAL_GPIO_WritePin>
	HAL_UART_Transmit_IT(HGCodeControl.HGCodeUartHandle,(uint8_t*)"H21 OK",6);
 800247a:	4b05      	ldr	r3, [pc, #20]	; (8002490 <H21+0x24>)
 800247c:	4905      	ldr	r1, [pc, #20]	; (8002494 <H21+0x28>)
 800247e:	6818      	ldr	r0, [r3, #0]
 8002480:	2206      	movs	r2, #6
}
 8002482:	e8bd 4008 	ldmia.w	sp!, {r3, lr}
	HAL_UART_Transmit_IT(HGCodeControl.HGCodeUartHandle,(uint8_t*)"H21 OK",6);
 8002486:	f7ff bed0 	b.w	800222a <HAL_UART_Transmit_IT>
 800248a:	bf00      	nop
 800248c:	40020400 	.word	0x40020400
 8002490:	20000240 	.word	0x20000240
 8002494:	0800353b 	.word	0x0800353b

08002498 <startHGCode>:
void startHGCode(TIM_HandleTypeDef* timHandler,UART_HandleTypeDef* HGCodeUsartHandle,DMA_HandleTypeDef* HGCodeDmaHandle){
 8002498:	b507      	push	{r0, r1, r2, lr}
 800249a:	4604      	mov	r4, r0
 800249c:	4608      	mov	r0, r1
	HGCodeInit(HGCodeUsartHandle,HGCodeDmaHandle);
 800249e:	4611      	mov	r1, r2
 80024a0:	f000 f868 	bl	8002574 <HGCodeInit>
	HGCodeDMAStart();
 80024a4:	f000 f882 	bl	80025ac <HGCodeDMAStart>
	HAL_TIM_Base_Start_IT(timHandler);
 80024a8:	4620      	mov	r0, r4
 80024aa:	f7ff fa8d 	bl	80019c8 <HAL_TIM_Base_Start_IT>
	STMotorInitHandler(&STMotorDevices[0],&htim5,TIM_CHANNEL_1,MOTOR_1_ENDSTOP_IRQN);
 80024ae:	2306      	movs	r3, #6
 80024b0:	2200      	movs	r2, #0
 80024b2:	492d      	ldr	r1, [pc, #180]	; (8002568 <startHGCode+0xd0>)
 80024b4:	482d      	ldr	r0, [pc, #180]	; (800256c <startHGCode+0xd4>)
			temp = HGCodeGetCommandData();
 80024b6:	4c2e      	ldr	r4, [pc, #184]	; (8002570 <startHGCode+0xd8>)
	STMotorInitHandler(&STMotorDevices[0],&htim5,TIM_CHANNEL_1,MOTOR_1_ENDSTOP_IRQN);
 80024b8:	f000 fa64 	bl	8002984 <STMotorInitHandler>
	STMotorInitParam(&STMotorDevices[0],1000,400,MAX_SPEED,MIN_SPEED);
 80024bc:	f44f 7348 	mov.w	r3, #800	; 0x320
 80024c0:	9300      	str	r3, [sp, #0]
 80024c2:	f44f 72c8 	mov.w	r2, #400	; 0x190
 80024c6:	f241 3388 	movw	r3, #5000	; 0x1388
 80024ca:	f44f 717a 	mov.w	r1, #1000	; 0x3e8
 80024ce:	4827      	ldr	r0, [pc, #156]	; (800256c <startHGCode+0xd4>)
 80024d0:	f000 fa78 	bl	80029c4 <STMotorInitParam>
 80024d4:	4625      	mov	r5, r4
		if(HGCodeCheckDataBuffer() == 1){
 80024d6:	f000 f883 	bl	80025e0 <HGCodeCheckDataBuffer>
 80024da:	2801      	cmp	r0, #1
 80024dc:	d1fb      	bne.n	80024d6 <startHGCode+0x3e>
			temp = HGCodeGetCommandData();
 80024de:	f000 f889 	bl	80025f4 <HGCodeGetCommandData>
			if(temp->HGCodeCommand.G != 0){
 80024e2:	f9b0 3000 	ldrsh.w	r3, [r0]
			temp = HGCodeGetCommandData();
 80024e6:	6020      	str	r0, [r4, #0]
			if(temp->HGCodeCommand.G != 0){
 80024e8:	b17b      	cbz	r3, 800250a <startHGCode+0x72>
				switch(temp->HGCodeCommand.G){
 80024ea:	2b01      	cmp	r3, #1
 80024ec:	d007      	beq.n	80024fe <startHGCode+0x66>
 80024ee:	2b1c      	cmp	r3, #28
 80024f0:	d008      	beq.n	8002504 <startHGCode+0x6c>
			memset(temp,0x00,sizeof(HGCodeDataControl_t));
 80024f2:	2238      	movs	r2, #56	; 0x38
 80024f4:	2100      	movs	r1, #0
 80024f6:	6828      	ldr	r0, [r5, #0]
 80024f8:	f000 fff6 	bl	80034e8 <memset>
 80024fc:	e7eb      	b.n	80024d6 <startHGCode+0x3e>
					G01();
 80024fe:	f7ff ff47 	bl	8002390 <G01>
					break;
 8002502:	e7f6      	b.n	80024f2 <startHGCode+0x5a>
					G28();
 8002504:	f7ff ff5c 	bl	80023c0 <G28>
					break;
 8002508:	e7f3      	b.n	80024f2 <startHGCode+0x5a>
			}else if(temp->HGCodeCommand.H != 0){
 800250a:	f9b0 3002 	ldrsh.w	r3, [r0, #2]
 800250e:	2b00      	cmp	r3, #0
 8002510:	d0ef      	beq.n	80024f2 <startHGCode+0x5a>
				switch(temp->HGCodeCommand.H){
 8002512:	3b0a      	subs	r3, #10
 8002514:	2b0b      	cmp	r3, #11
 8002516:	d8ec      	bhi.n	80024f2 <startHGCode+0x5a>
 8002518:	a201      	add	r2, pc, #4	; (adr r2, 8002520 <startHGCode+0x88>)
 800251a:	f852 f023 	ldr.w	pc, [r2, r3, lsl #2]
 800251e:	bf00      	nop
 8002520:	08002551 	.word	0x08002551
 8002524:	08002557 	.word	0x08002557
 8002528:	080024f3 	.word	0x080024f3
 800252c:	080024f3 	.word	0x080024f3
 8002530:	080024f3 	.word	0x080024f3
 8002534:	080024f3 	.word	0x080024f3
 8002538:	080024f3 	.word	0x080024f3
 800253c:	080024f3 	.word	0x080024f3
 8002540:	080024f3 	.word	0x080024f3
 8002544:	080024f3 	.word	0x080024f3
 8002548:	0800255d 	.word	0x0800255d
 800254c:	08002563 	.word	0x08002563
					H10();
 8002550:	f7ff ff4a 	bl	80023e8 <H10>
					break;
 8002554:	e7cd      	b.n	80024f2 <startHGCode+0x5a>
					H11();
 8002556:	f7ff ff5d 	bl	8002414 <H11>
					break;
 800255a:	e7ca      	b.n	80024f2 <startHGCode+0x5a>
					H20();
 800255c:	f7ff ff70 	bl	8002440 <H20>
					break;
 8002560:	e7c7      	b.n	80024f2 <startHGCode+0x5a>
					H21();
 8002562:	f7ff ff83 	bl	800246c <H21>
					break;
 8002566:	e7c4      	b.n	80024f2 <startHGCode+0x5a>
 8002568:	200005f4 	.word	0x200005f4
 800256c:	20000490 	.word	0x20000490
 8002570:	20000044 	.word	0x20000044

08002574 <HGCodeInit>:

uint8_t HGCodeBuffer[MAX_HGCODE_BUFFER] = {0};
HGCodeControl_t HGCodeControl = {0};

void HGCodeInit(UART_HandleTypeDef* HGCodeUsartHandle,DMA_HandleTypeDef* HGCodeDmaHandle){
	HGCodeControl.HGCodeUartHandle =HGCodeUsartHandle;
 8002574:	4b0b      	ldr	r3, [pc, #44]	; (80025a4 <HGCodeInit+0x30>)
	HGCodeControl.HGCodeDmaHandle = HGCodeDmaHandle;
	HGCodeControl.HGCodeBufferControl.GHCodeHuffer = HGCodeBuffer;
 8002576:	4a0c      	ldr	r2, [pc, #48]	; (80025a8 <HGCodeInit+0x34>)
 8002578:	609a      	str	r2, [r3, #8]
	HGCodeControl.HGCodeBufferControl.bufferSize = MAX_HGCODE_BUFFER;
 800257a:	f44f 72fa 	mov.w	r2, #500	; 0x1f4
	HGCodeControl.HGCodeDmaHandle = HGCodeDmaHandle;
 800257e:	e883 0003 	stmia.w	r3, {r0, r1}
	HGCodeControl.HGCodeBufferControl.bufferSize = MAX_HGCODE_BUFFER;
 8002582:	819a      	strh	r2, [r3, #12]

	HGCodeControl.commandCount = 0;
 8002584:	2100      	movs	r1, #0
		HGCodeControl.HGCodeDataControl[i].HGCodeParameter.C = 0;
		HGCodeControl.HGCodeDataControl[i].HGCodeParameter.P = 0;
		HGCodeControl.HGCodeDataControl[i].HGCodeParameter.M = 0;
		HGCodeControl.HGCodeDataControl[i].HGCodeParameter.checkSum = 0;
	}*/
	memset(HGCodeControl.HGCodeDataControl,0x00,sizeof(HGCodeDataControl_t)*MAX_COMMAND);
 8002586:	f44f 720c 	mov.w	r2, #560	; 0x230
 800258a:	f103 0010 	add.w	r0, r3, #16
	HGCodeControl.commandCount = 0;
 800258e:	f883 1240 	strb.w	r1, [r3, #576]	; 0x240
	HGCodeControl.HGCodeBufferControl.front = 0;
 8002592:	7399      	strb	r1, [r3, #14]
	HGCodeControl.HGCodeBufferControl.rear = 0;
 8002594:	73d9      	strb	r1, [r3, #15]
	HGCodeControl.dataRear = 0;
 8002596:	f883 1242 	strb.w	r1, [r3, #578]	; 0x242
	HGCodeControl.dataFront = 0;
 800259a:	f883 1241 	strb.w	r1, [r3, #577]	; 0x241
	memset(HGCodeControl.HGCodeDataControl,0x00,sizeof(HGCodeDataControl_t)*MAX_COMMAND);
 800259e:	f000 bfa3 	b.w	80034e8 <memset>
 80025a2:	bf00      	nop
 80025a4:	20000240 	.word	0x20000240
 80025a8:	20000048 	.word	0x20000048

080025ac <HGCodeDMAStart>:
}

	//void HGCodeDMASetBuffer(int8_t *,uint16_t);

void HGCodeDMAStart(void){
	HAL_UART_Receive_DMA(HGCodeControl.HGCodeUartHandle,HGCodeBuffer,(int)MAX_HGCODE_BUFFER);
 80025ac:	4b03      	ldr	r3, [pc, #12]	; (80025bc <HGCodeDMAStart+0x10>)
 80025ae:	4904      	ldr	r1, [pc, #16]	; (80025c0 <HGCodeDMAStart+0x14>)
 80025b0:	6818      	ldr	r0, [r3, #0]
 80025b2:	f44f 72fa 	mov.w	r2, #500	; 0x1f4
 80025b6:	f7ff be57 	b.w	8002268 <HAL_UART_Receive_DMA>
 80025ba:	bf00      	nop
 80025bc:	20000240 	.word	0x20000240
 80025c0:	20000048 	.word	0x20000048

080025c4 <HGCodeCheckCommandBuffer>:
}

int8_t HGCodeCheckCommandBuffer(void){
	if(HGCodeControl.HGCodeBufferControl.rear == MAX_HGCODE_BUFFER - __HAL_DMA_GET_COUNTER(HGCodeControl.HGCodeDmaHandle)){
 80025c4:	4a05      	ldr	r2, [pc, #20]	; (80025dc <HGCodeCheckCommandBuffer+0x18>)
 80025c6:	6853      	ldr	r3, [r2, #4]
 80025c8:	7bd0      	ldrb	r0, [r2, #15]
 80025ca:	681b      	ldr	r3, [r3, #0]
 80025cc:	685b      	ldr	r3, [r3, #4]
 80025ce:	f5c3 73fa 	rsb	r3, r3, #500	; 0x1f4
		return 0;
	}else{
		return 1;
	}
}
 80025d2:	1ac0      	subs	r0, r0, r3
 80025d4:	bf18      	it	ne
 80025d6:	2001      	movne	r0, #1
 80025d8:	4770      	bx	lr
 80025da:	bf00      	nop
 80025dc:	20000240 	.word	0x20000240

080025e0 <HGCodeCheckDataBuffer>:
	}
	HGCodeControl.HGCodeBufferControl.rear = index;
}

uint16_t HGCodeGetCommandCount(void){
	return HGCodeControl.commandCount;
 80025e0:	4b03      	ldr	r3, [pc, #12]	; (80025f0 <HGCodeCheckDataBuffer+0x10>)
	if(HGCodeGetCommandCount() > 0){
 80025e2:	f893 0240 	ldrb.w	r0, [r3, #576]	; 0x240
}
 80025e6:	3000      	adds	r0, #0
 80025e8:	bf18      	it	ne
 80025ea:	2001      	movne	r0, #1
 80025ec:	4770      	bx	lr
 80025ee:	bf00      	nop
 80025f0:	20000240 	.word	0x20000240

080025f4 <HGCodeGetCommandData>:
}

HGCodeDataControl_t* HGCodeGetCommandData(void){
 80025f4:	b530      	push	{r4, r5, lr}

	uint8_t rear = HGCodeControl.dataRear;
 80025f6:	4b0e      	ldr	r3, [pc, #56]	; (8002630 <HGCodeGetCommandData+0x3c>)
 80025f8:	f893 2242 	ldrb.w	r2, [r3, #578]	; 0x242

	if(rear == HGCodeControl.dataFront)
 80025fc:	f893 1241 	ldrb.w	r1, [r3, #577]	; 0x241
 8002600:	4291      	cmp	r1, r2
 8002602:	d012      	beq.n	800262a <HGCodeGetCommandData+0x36>
		return 0;
	else if(HGCodeControl.commandCount == 0)
 8002604:	f893 0240 	ldrb.w	r0, [r3, #576]	; 0x240
 8002608:	b180      	cbz	r0, 800262c <HGCodeGetCommandData+0x38>
		return 0;
	HGCodeControl.dataRear = (HGCodeControl.dataRear + 1) % MAX_COMMAND;
 800260a:	1c55      	adds	r5, r2, #1
 800260c:	240a      	movs	r4, #10

	HGCodeControl.commandCount -= 1;
 800260e:	3801      	subs	r0, #1
	HGCodeControl.dataRear = (HGCodeControl.dataRear + 1) % MAX_COMMAND;
 8002610:	fb95 f1f4 	sdiv	r1, r5, r4
	HGCodeControl.commandCount -= 1;
 8002614:	f883 0240 	strb.w	r0, [r3, #576]	; 0x240
	HGCodeControl.dataRear = (HGCodeControl.dataRear + 1) % MAX_COMMAND;
 8002618:	fb04 5111 	mls	r1, r4, r1, r5

	return &HGCodeControl.HGCodeDataControl[rear];
 800261c:	2038      	movs	r0, #56	; 0x38
 800261e:	fb00 3002 	mla	r0, r0, r2, r3
	HGCodeControl.dataRear = (HGCodeControl.dataRear + 1) % MAX_COMMAND;
 8002622:	f883 1242 	strb.w	r1, [r3, #578]	; 0x242
	return &HGCodeControl.HGCodeDataControl[rear];
 8002626:	3010      	adds	r0, #16
 8002628:	bd30      	pop	{r4, r5, pc}
		return 0;
 800262a:	2000      	movs	r0, #0
}
 800262c:	bd30      	pop	{r4, r5, pc}
 800262e:	bf00      	nop
 8002630:	20000240 	.word	0x20000240

08002634 <HGCodeCharToInt>:
		HGCodeControl.HGCodeDataControl[HGCodeControl.dataFront].HGCodeParameter.checkSum = data;
		break;
	}
}

int16_t HGCodeCharToInt(uint8_t* buff, int size){
 8002634:	b530      	push	{r4, r5, lr}
	int16_t value = 0;
	int a = 1;
	for(int i = size - 1;i >= 0;i--){
 8002636:	3901      	subs	r1, #1
	int a = 1;
 8002638:	2401      	movs	r4, #1
	int16_t value = 0;
 800263a:	2300      	movs	r3, #0
		value += (buff[i] - 0x30) * a;
		a*=10;
 800263c:	250a      	movs	r5, #10
	for(int i = size - 1;i >= 0;i--){
 800263e:	2900      	cmp	r1, #0
 8002640:	da01      	bge.n	8002646 <HGCodeCharToInt+0x12>
	}
	return value;
}
 8002642:	4618      	mov	r0, r3
 8002644:	bd30      	pop	{r4, r5, pc}
		value += (buff[i] - 0x30) * a;
 8002646:	5c42      	ldrb	r2, [r0, r1]
 8002648:	3a30      	subs	r2, #48	; 0x30
 800264a:	fb12 f204 	smulbb	r2, r2, r4
 800264e:	4413      	add	r3, r2
 8002650:	b21b      	sxth	r3, r3
		a*=10;
 8002652:	436c      	muls	r4, r5
	for(int i = size - 1;i >= 0;i--){
 8002654:	3901      	subs	r1, #1
 8002656:	e7f2      	b.n	800263e <HGCodeCharToInt+0xa>

08002658 <HGCodeCharToDouble>:

double HGCodeCharToDouble(uint8_t* buff ,int size){
 8002658:	e92d 4ff7 	stmdb	sp!, {r0, r1, r2, r4, r5, r6, r7, r8, r9, sl, fp, lr}
	double value = 0.0;
	int a = 1;
	double b = 1;
	for(int i = size - 1;i >= 0;i--){
 800265c:	1e4c      	subs	r4, r1, #1
	double b = 1;
 800265e:	f8df 9088 	ldr.w	r9, [pc, #136]	; 80026e8 <HGCodeCharToDouble+0x90>
 8002662:	9401      	str	r4, [sp, #4]
double HGCodeCharToDouble(uint8_t* buff ,int size){
 8002664:	4682      	mov	sl, r0
	double b = 1;
 8002666:	f04f 0800 	mov.w	r8, #0
	int a = 1;
 800266a:	2501      	movs	r5, #1
	double value = 0.0;
 800266c:	2600      	movs	r6, #0
 800266e:	2700      	movs	r7, #0
	for(int i = size - 1;i >= 0;i--){
 8002670:	2c00      	cmp	r4, #0
 8002672:	da04      	bge.n	800267e <HGCodeCharToDouble+0x26>
			value += (buff[i] - 0x30) * a;
			a*=10;
		}
	}
	return value;
}
 8002674:	ec47 6b10 	vmov	d0, r6, r7
 8002678:	b003      	add	sp, #12
 800267a:	e8bd 8ff0 	ldmia.w	sp!, {r4, r5, r6, r7, r8, r9, sl, fp, pc}
		if(buff[i] == '.'){
 800267e:	f81a 0004 	ldrb.w	r0, [sl, r4]
 8002682:	282e      	cmp	r0, #46	; 0x2e
 8002684:	d11b      	bne.n	80026be <HGCodeCharToDouble+0x66>
			for(int j = 0; j < size - 1 - i ;j++){
 8002686:	9b01      	ldr	r3, [sp, #4]
 8002688:	2500      	movs	r5, #0
 800268a:	eba3 0b04 	sub.w	fp, r3, r4
 800268e:	455d      	cmp	r5, fp
 8002690:	db0a      	blt.n	80026a8 <HGCodeCharToDouble+0x50>
			value = value * b;
 8002692:	4630      	mov	r0, r6
 8002694:	4639      	mov	r1, r7
 8002696:	4642      	mov	r2, r8
 8002698:	464b      	mov	r3, r9
 800269a:	f7fd ff6d 	bl	8000578 <__aeabi_dmul>
			a = 1;
 800269e:	2501      	movs	r5, #1
			value = value * b;
 80026a0:	4606      	mov	r6, r0
 80026a2:	460f      	mov	r7, r1
	for(int i = size - 1;i >= 0;i--){
 80026a4:	3c01      	subs	r4, #1
 80026a6:	e7e3      	b.n	8002670 <HGCodeCharToDouble+0x18>
				b *= 0.1;
 80026a8:	4640      	mov	r0, r8
 80026aa:	4649      	mov	r1, r9
 80026ac:	a30c      	add	r3, pc, #48	; (adr r3, 80026e0 <HGCodeCharToDouble+0x88>)
 80026ae:	e9d3 2300 	ldrd	r2, r3, [r3]
 80026b2:	f7fd ff61 	bl	8000578 <__aeabi_dmul>
			for(int j = 0; j < size - 1 - i ;j++){
 80026b6:	3501      	adds	r5, #1
				b *= 0.1;
 80026b8:	4680      	mov	r8, r0
 80026ba:	4689      	mov	r9, r1
 80026bc:	e7e7      	b.n	800268e <HGCodeCharToDouble+0x36>
			value += (buff[i] - 0x30) * a;
 80026be:	3830      	subs	r0, #48	; 0x30
 80026c0:	4368      	muls	r0, r5
 80026c2:	f7fd fef3 	bl	80004ac <__aeabi_i2d>
 80026c6:	460b      	mov	r3, r1
 80026c8:	4602      	mov	r2, r0
 80026ca:	4639      	mov	r1, r7
 80026cc:	4630      	mov	r0, r6
 80026ce:	f7fd fda1 	bl	8000214 <__adddf3>
			a*=10;
 80026d2:	230a      	movs	r3, #10
			value += (buff[i] - 0x30) * a;
 80026d4:	4606      	mov	r6, r0
 80026d6:	460f      	mov	r7, r1
			a*=10;
 80026d8:	435d      	muls	r5, r3
 80026da:	e7e3      	b.n	80026a4 <HGCodeCharToDouble+0x4c>
 80026dc:	f3af 8000 	nop.w
 80026e0:	9999999a 	.word	0x9999999a
 80026e4:	3fb99999 	.word	0x3fb99999
 80026e8:	3ff00000 	.word	0x3ff00000

080026ec <HGCodeDecodeCommand>:
void HGCodeDecodeCommand(void){
 80026ec:	e92d 4ff0 	stmdb	sp!, {r4, r5, r6, r7, r8, r9, sl, fp, lr}
	uint16_t rear = HGCodeControl.HGCodeBufferControl.rear;
 80026f0:	4d9b      	ldr	r5, [pc, #620]	; (8002960 <HGCodeDecodeCommand+0x274>)
	uint16_t front = MAX_HGCODE_BUFFER - __HAL_DMA_GET_COUNTER(HGCodeControl.HGCodeDmaHandle);
 80026f2:	686b      	ldr	r3, [r5, #4]
	uint16_t rear = HGCodeControl.HGCodeBufferControl.rear;
 80026f4:	7bec      	ldrb	r4, [r5, #15]
	uint16_t front = MAX_HGCODE_BUFFER - __HAL_DMA_GET_COUNTER(HGCodeControl.HGCodeDmaHandle);
 80026f6:	681b      	ldr	r3, [r3, #0]
void HGCodeDecodeCommand(void){
 80026f8:	b089      	sub	sp, #36	; 0x24
	uint16_t front = MAX_HGCODE_BUFFER - __HAL_DMA_GET_COUNTER(HGCodeControl.HGCodeDmaHandle);
 80026fa:	685f      	ldr	r7, [r3, #4]
	uint8_t buff[20] = {0};
 80026fc:	ae03      	add	r6, sp, #12
 80026fe:	2214      	movs	r2, #20
 8002700:	2100      	movs	r1, #0
	uint16_t front = MAX_HGCODE_BUFFER - __HAL_DMA_GET_COUNTER(HGCodeControl.HGCodeDmaHandle);
 8002702:	f5c7 77fa 	rsb	r7, r7, #500	; 0x1f4
	uint8_t buff[20] = {0};
 8002706:	4630      	mov	r0, r6
 8002708:	f000 feee 	bl	80034e8 <memset>
	uint16_t rear = HGCodeControl.HGCodeBufferControl.rear;
 800270c:	fa1f f884 	uxth.w	r8, r4
	uint16_t front = MAX_HGCODE_BUFFER - __HAL_DMA_GET_COUNTER(HGCodeControl.HGCodeDmaHandle);
 8002710:	b2bf      	uxth	r7, r7
	HAL_UART_Transmit(&huart1,(uint8_t*)"hello\r\n",7,1000);
 8002712:	f44f 737a 	mov.w	r3, #1000	; 0x3e8
 8002716:	2207      	movs	r2, #7
 8002718:	4992      	ldr	r1, [pc, #584]	; (8002964 <HGCodeDecodeCommand+0x278>)
 800271a:	4893      	ldr	r0, [pc, #588]	; (8002968 <HGCodeDecodeCommand+0x27c>)
 800271c:	f7ff fd28 	bl	8002170 <HAL_UART_Transmit>
	if( rear < front){
 8002720:	45b8      	cmp	r8, r7
 8002722:	d227      	bcs.n	8002774 <HGCodeDecodeCommand+0x88>
		receiveDataSize = front - rear;
 8002724:	eba7 0308 	sub.w	r3, r7, r8
		if(HGCodeBuffer[index] == ';'){
 8002728:	f8df 9240 	ldr.w	r9, [pc, #576]	; 800296c <HGCodeDecodeCommand+0x280>
		receiveDataSize = front + (MAX_HGCODE_BUFFER - rear);
 800272c:	b29b      	uxth	r3, r3
				index = (index + 1) % MAX_HGCODE_BUFFER;
 800272e:	f44f 78fa 	mov.w	r8, #500	; 0x1f4
	for(int i = receiveDataSize; i > 0; i--,index = (index + 1) % MAX_HGCODE_BUFFER){
 8002732:	2b00      	cmp	r3, #0
 8002734:	dd1a      	ble.n	800276c <HGCodeDecodeCommand+0x80>
		if(HGCodeBuffer[index] == ';'){
 8002736:	f819 2004 	ldrb.w	r2, [r9, r4]
 800273a:	2a3b      	cmp	r2, #59	; 0x3b
 800273c:	f104 0101 	add.w	r1, r4, #1
 8002740:	d11d      	bne.n	800277e <HGCodeDecodeCommand+0x92>
			HGCodeControl.commandCount++;
 8002742:	f895 3240 	ldrb.w	r3, [r5, #576]	; 0x240
 8002746:	3301      	adds	r3, #1
 8002748:	f885 3240 	strb.w	r3, [r5, #576]	; 0x240
			HGCodeControl.dataFront = (HGCodeControl.dataFront + 1) % MAX_COMMAND;
 800274c:	f895 3241 	ldrb.w	r3, [r5, #577]	; 0x241
 8002750:	200a      	movs	r0, #10
 8002752:	3301      	adds	r3, #1
 8002754:	fb93 f2f0 	sdiv	r2, r3, r0
 8002758:	fb00 3312 	mls	r3, r0, r2, r3
 800275c:	f885 3241 	strb.w	r3, [r5, #577]	; 0x241
			index = (index + 1) % MAX_HGCODE_BUFFER;
 8002760:	f44f 73fa 	mov.w	r3, #500	; 0x1f4
 8002764:	fb91 f4f3 	sdiv	r4, r1, r3
 8002768:	fb03 1414 	mls	r4, r3, r4, r1
	HGCodeControl.HGCodeBufferControl.rear = index;
 800276c:	73ec      	strb	r4, [r5, #15]
}
 800276e:	b009      	add	sp, #36	; 0x24
 8002770:	e8bd 8ff0 	ldmia.w	sp!, {r4, r5, r6, r7, r8, r9, sl, fp, pc}
	}else if(rear > front){
 8002774:	d9fb      	bls.n	800276e <HGCodeDecodeCommand+0x82>
		receiveDataSize = front + (MAX_HGCODE_BUFFER - rear);
 8002776:	f5c8 73fa 	rsb	r3, r8, #500	; 0x1f4
 800277a:	443b      	add	r3, r7
 800277c:	e7d4      	b.n	8002728 <HGCodeDecodeCommand+0x3c>
		switch(HGCodeBuffer[index]){
 800277e:	2a48      	cmp	r2, #72	; 0x48
 8002780:	d833      	bhi.n	80027ea <HGCodeDecodeCommand+0xfe>
 8002782:	2a47      	cmp	r2, #71	; 0x47
 8002784:	d206      	bcs.n	8002794 <HGCodeDecodeCommand+0xa8>
 8002786:	2a2a      	cmp	r2, #42	; 0x2a
 8002788:	d004      	beq.n	8002794 <HGCodeDecodeCommand+0xa8>
 800278a:	d332      	bcc.n	80027f2 <HGCodeDecodeCommand+0x106>
 800278c:	f1a2 0041 	sub.w	r0, r2, #65	; 0x41
 8002790:	2802      	cmp	r0, #2
 8002792:	d82e      	bhi.n	80027f2 <HGCodeDecodeCommand+0x106>
				index = (index + 1) % MAX_HGCODE_BUFFER;
 8002794:	fb91 f4f8 	sdiv	r4, r1, r8
 8002798:	fb08 1414 	mls	r4, r8, r4, r1
				if(HGCodeBuffer[index]=='-'){
 800279c:	f819 1004 	ldrb.w	r1, [r9, r4]
 80027a0:	292d      	cmp	r1, #45	; 0x2d
					index = (index + 1) % MAX_HGCODE_BUFFER;
 80027a2:	bf01      	itttt	eq
 80027a4:	3401      	addeq	r4, #1
					i--;
 80027a6:	f103 33ff 	addeq.w	r3, r3, #4294967295
					index = (index + 1) % MAX_HGCODE_BUFFER;
 80027aa:	fb94 f1f8 	sdiveq	r1, r4, r8
					sign = -1;
 80027ae:	f04f 37ff 	moveq.w	r7, #4294967295
					index = (index + 1) % MAX_HGCODE_BUFFER;
 80027b2:	bf0c      	ite	eq
 80027b4:	fb08 4411 	mlseq	r4, r8, r1, r4
 80027b8:	2701      	movne	r7, #1
 80027ba:	2100      	movs	r1, #0
				while(HGCodeBuffer[index] != ' '){
 80027bc:	f819 0004 	ldrb.w	r0, [r9, r4]
 80027c0:	2820      	cmp	r0, #32
 80027c2:	eba3 0a01 	sub.w	sl, r3, r1
 80027c6:	d11b      	bne.n	8002800 <HGCodeDecodeCommand+0x114>
				switch(HGCodeBuffer[data]){
 80027c8:	2a43      	cmp	r2, #67	; 0x43
 80027ca:	f000 8084 	beq.w	80028d6 <HGCodeDecodeCommand+0x1ea>
 80027ce:	d81f      	bhi.n	8002810 <HGCodeDecodeCommand+0x124>
 80027d0:	2a41      	cmp	r2, #65	; 0x41
 80027d2:	d054      	beq.n	800287e <HGCodeDecodeCommand+0x192>
 80027d4:	d869      	bhi.n	80028aa <HGCodeDecodeCommand+0x1be>
 80027d6:	2a2a      	cmp	r2, #42	; 0x2a
 80027d8:	f000 80a9 	beq.w	800292e <HGCodeDecodeCommand+0x242>
				memset(buff,0x00,sizeof(buff));
 80027dc:	2214      	movs	r2, #20
 80027de:	2100      	movs	r1, #0
 80027e0:	4630      	mov	r0, r6
 80027e2:	f000 fe81 	bl	80034e8 <memset>
				break;
 80027e6:	4653      	mov	r3, sl
 80027e8:	e003      	b.n	80027f2 <HGCodeDecodeCommand+0x106>
		switch(HGCodeBuffer[index]){
 80027ea:	2a4d      	cmp	r2, #77	; 0x4d
 80027ec:	d0d2      	beq.n	8002794 <HGCodeDecodeCommand+0xa8>
 80027ee:	2a50      	cmp	r2, #80	; 0x50
 80027f0:	d0d0      	beq.n	8002794 <HGCodeDecodeCommand+0xa8>
	for(int i = receiveDataSize; i > 0; i--,index = (index + 1) % MAX_HGCODE_BUFFER){
 80027f2:	3401      	adds	r4, #1
 80027f4:	3b01      	subs	r3, #1
 80027f6:	fb94 f2f8 	sdiv	r2, r4, r8
 80027fa:	fb08 4412 	mls	r4, r8, r2, r4
 80027fe:	e798      	b.n	8002732 <HGCodeDecodeCommand+0x46>
					index = (index + 1) % MAX_HGCODE_BUFFER;
 8002800:	3401      	adds	r4, #1
					buff[j] = HGCodeBuffer[index];
 8002802:	5470      	strb	r0, [r6, r1]
					index = (index + 1) % MAX_HGCODE_BUFFER;
 8002804:	fb94 f0f8 	sdiv	r0, r4, r8
					j++;
 8002808:	3101      	adds	r1, #1
					index = (index + 1) % MAX_HGCODE_BUFFER;
 800280a:	fb08 4410 	mls	r4, r8, r0, r4
 800280e:	e7d5      	b.n	80027bc <HGCodeDecodeCommand+0xd0>
				switch(HGCodeBuffer[data]){
 8002810:	2a48      	cmp	r2, #72	; 0x48
 8002812:	d028      	beq.n	8002866 <HGCodeDecodeCommand+0x17a>
 8002814:	d80d      	bhi.n	8002832 <HGCodeDecodeCommand+0x146>
 8002816:	2a47      	cmp	r2, #71	; 0x47
 8002818:	d1e0      	bne.n	80027dc <HGCodeDecodeCommand+0xf0>
					HGCodePutData(HGCodeCharToInt(buff,j) * sign,HGCODE_G);
 800281a:	4630      	mov	r0, r6
 800281c:	f7ff ff0a 	bl	8002634 <HGCodeCharToInt>
		HGCodeControl.HGCodeDataControl[HGCodeControl.dataFront].HGCodeCommand.G = (int16_t)data;
 8002820:	f895 3241 	ldrb.w	r3, [r5, #577]	; 0x241
 8002824:	2238      	movs	r2, #56	; 0x38
 8002826:	fb02 5303 	mla	r3, r2, r3, r5
					HGCodePutData(HGCodeCharToInt(buff,j) * sign,HGCODE_G);
 800282a:	fb17 f700 	smulbb	r7, r7, r0
		HGCodeControl.HGCodeDataControl[HGCodeControl.dataFront].HGCodeCommand.G = (int16_t)data;
 800282e:	821f      	strh	r7, [r3, #16]
 8002830:	e7d4      	b.n	80027dc <HGCodeDecodeCommand+0xf0>
				switch(HGCodeBuffer[data]){
 8002832:	2a4d      	cmp	r2, #77	; 0x4d
 8002834:	d065      	beq.n	8002902 <HGCodeDecodeCommand+0x216>
 8002836:	2a50      	cmp	r2, #80	; 0x50
 8002838:	d1d0      	bne.n	80027dc <HGCodeDecodeCommand+0xf0>
					HGCodePutData(HGCodeCharToDouble(buff,j) * sign,HGCODE_P);
 800283a:	4630      	mov	r0, r6
 800283c:	f7ff ff0c 	bl	8002658 <HGCodeCharToDouble>
		HGCodeControl.HGCodeDataControl[HGCodeControl.dataFront].HGCodeParameter.P = data;
 8002840:	f895 b241 	ldrb.w	fp, [r5, #577]	; 0x241
					HGCodePutData(HGCodeCharToDouble(buff,j) * sign,HGCODE_P);
 8002844:	ec53 2b10 	vmov	r2, r3, d0
		HGCodeControl.HGCodeDataControl[HGCodeControl.dataFront].HGCodeParameter.P = data;
 8002848:	2138      	movs	r1, #56	; 0x38
					HGCodePutData(HGCodeCharToDouble(buff,j) * sign,HGCODE_P);
 800284a:	4638      	mov	r0, r7
 800284c:	e9cd 2300 	strd	r2, r3, [sp]
		HGCodeControl.HGCodeDataControl[HGCodeControl.dataFront].HGCodeParameter.P = data;
 8002850:	fb01 5b0b 	mla	fp, r1, fp, r5
					HGCodePutData(HGCodeCharToDouble(buff,j) * sign,HGCODE_P);
 8002854:	f7fd fe2a 	bl	80004ac <__aeabi_i2d>
 8002858:	e9dd 2300 	ldrd	r2, r3, [sp]
 800285c:	f7fd fe8c 	bl	8000578 <__aeabi_dmul>
		HGCodeControl.HGCodeDataControl[HGCodeControl.dataFront].HGCodeParameter.P = data;
 8002860:	e9cb 010c 	strd	r0, r1, [fp, #48]	; 0x30
 8002864:	e7ba      	b.n	80027dc <HGCodeDecodeCommand+0xf0>
					HGCodePutData(HGCodeCharToInt(buff,j) * sign,HGCODE_H);
 8002866:	4630      	mov	r0, r6
 8002868:	f7ff fee4 	bl	8002634 <HGCodeCharToInt>
		HGCodeControl.HGCodeDataControl[HGCodeControl.dataFront].HGCodeCommand.H = (int16_t)data;
 800286c:	f895 3241 	ldrb.w	r3, [r5, #577]	; 0x241
 8002870:	2238      	movs	r2, #56	; 0x38
 8002872:	fb02 5303 	mla	r3, r2, r3, r5
					HGCodePutData(HGCodeCharToInt(buff,j) * sign,HGCODE_H);
 8002876:	fb17 f700 	smulbb	r7, r7, r0
		HGCodeControl.HGCodeDataControl[HGCodeControl.dataFront].HGCodeCommand.H = (int16_t)data;
 800287a:	825f      	strh	r7, [r3, #18]
 800287c:	e7ae      	b.n	80027dc <HGCodeDecodeCommand+0xf0>
					HGCodePutData(HGCodeCharToDouble(buff,j) * sign,HGCODE_A);
 800287e:	4630      	mov	r0, r6
 8002880:	f7ff feea 	bl	8002658 <HGCodeCharToDouble>
		HGCodeControl.HGCodeDataControl[HGCodeControl.dataFront].HGCodeParameter.A = data;
 8002884:	f895 b241 	ldrb.w	fp, [r5, #577]	; 0x241
					HGCodePutData(HGCodeCharToDouble(buff,j) * sign,HGCODE_A);
 8002888:	ec53 2b10 	vmov	r2, r3, d0
		HGCodeControl.HGCodeDataControl[HGCodeControl.dataFront].HGCodeParameter.A = data;
 800288c:	2138      	movs	r1, #56	; 0x38
					HGCodePutData(HGCodeCharToDouble(buff,j) * sign,HGCODE_A);
 800288e:	4638      	mov	r0, r7
 8002890:	e9cd 2300 	strd	r2, r3, [sp]
		HGCodeControl.HGCodeDataControl[HGCodeControl.dataFront].HGCodeParameter.A = data;
 8002894:	fb01 5b0b 	mla	fp, r1, fp, r5
					HGCodePutData(HGCodeCharToDouble(buff,j) * sign,HGCODE_A);
 8002898:	f7fd fe08 	bl	80004ac <__aeabi_i2d>
 800289c:	e9dd 2300 	ldrd	r2, r3, [sp]
 80028a0:	f7fd fe6a 	bl	8000578 <__aeabi_dmul>
		HGCodeControl.HGCodeDataControl[HGCodeControl.dataFront].HGCodeParameter.A = data;
 80028a4:	e9cb 0106 	strd	r0, r1, [fp, #24]
 80028a8:	e798      	b.n	80027dc <HGCodeDecodeCommand+0xf0>
					HGCodePutData(HGCodeCharToDouble(buff,j) * sign,HGCODE_B);
 80028aa:	4630      	mov	r0, r6
 80028ac:	f7ff fed4 	bl	8002658 <HGCodeCharToDouble>
		HGCodeControl.HGCodeDataControl[HGCodeControl.dataFront].HGCodeParameter.B = data;
 80028b0:	f895 b241 	ldrb.w	fp, [r5, #577]	; 0x241
					HGCodePutData(HGCodeCharToDouble(buff,j) * sign,HGCODE_B);
 80028b4:	ec53 2b10 	vmov	r2, r3, d0
		HGCodeControl.HGCodeDataControl[HGCodeControl.dataFront].HGCodeParameter.B = data;
 80028b8:	2138      	movs	r1, #56	; 0x38
					HGCodePutData(HGCodeCharToDouble(buff,j) * sign,HGCODE_B);
 80028ba:	4638      	mov	r0, r7
 80028bc:	e9cd 2300 	strd	r2, r3, [sp]
		HGCodeControl.HGCodeDataControl[HGCodeControl.dataFront].HGCodeParameter.B = data;
 80028c0:	fb01 5b0b 	mla	fp, r1, fp, r5
					HGCodePutData(HGCodeCharToDouble(buff,j) * sign,HGCODE_B);
 80028c4:	f7fd fdf2 	bl	80004ac <__aeabi_i2d>
 80028c8:	e9dd 2300 	ldrd	r2, r3, [sp]
 80028cc:	f7fd fe54 	bl	8000578 <__aeabi_dmul>
		HGCodeControl.HGCodeDataControl[HGCodeControl.dataFront].HGCodeParameter.B = data;
 80028d0:	e9cb 0108 	strd	r0, r1, [fp, #32]
 80028d4:	e782      	b.n	80027dc <HGCodeDecodeCommand+0xf0>
					HGCodePutData(HGCodeCharToDouble(buff,j) * sign,HGCODE_C);
 80028d6:	4630      	mov	r0, r6
 80028d8:	f7ff febe 	bl	8002658 <HGCodeCharToDouble>
		HGCodeControl.HGCodeDataControl[HGCodeControl.dataFront].HGCodeParameter.C = data;
 80028dc:	f895 b241 	ldrb.w	fp, [r5, #577]	; 0x241
					HGCodePutData(HGCodeCharToDouble(buff,j) * sign,HGCODE_C);
 80028e0:	ec53 2b10 	vmov	r2, r3, d0
		HGCodeControl.HGCodeDataControl[HGCodeControl.dataFront].HGCodeParameter.C = data;
 80028e4:	2138      	movs	r1, #56	; 0x38
					HGCodePutData(HGCodeCharToDouble(buff,j) * sign,HGCODE_C);
 80028e6:	4638      	mov	r0, r7
 80028e8:	e9cd 2300 	strd	r2, r3, [sp]
		HGCodeControl.HGCodeDataControl[HGCodeControl.dataFront].HGCodeParameter.C = data;
 80028ec:	fb01 5b0b 	mla	fp, r1, fp, r5
					HGCodePutData(HGCodeCharToDouble(buff,j) * sign,HGCODE_C);
 80028f0:	f7fd fddc 	bl	80004ac <__aeabi_i2d>
 80028f4:	e9dd 2300 	ldrd	r2, r3, [sp]
 80028f8:	f7fd fe3e 	bl	8000578 <__aeabi_dmul>
		HGCodeControl.HGCodeDataControl[HGCodeControl.dataFront].HGCodeParameter.C = data;
 80028fc:	e9cb 010a 	strd	r0, r1, [fp, #40]	; 0x28
 8002900:	e76c      	b.n	80027dc <HGCodeDecodeCommand+0xf0>
					HGCodePutData(HGCodeCharToDouble(buff,j) * sign,HGCODE_M);
 8002902:	4630      	mov	r0, r6
 8002904:	f7ff fea8 	bl	8002658 <HGCodeCharToDouble>
		HGCodeControl.HGCodeDataControl[HGCodeControl.dataFront].HGCodeParameter.M = data;
 8002908:	f895 b241 	ldrb.w	fp, [r5, #577]	; 0x241
					HGCodePutData(HGCodeCharToDouble(buff,j) * sign,HGCODE_M);
 800290c:	ec53 2b10 	vmov	r2, r3, d0
		HGCodeControl.HGCodeDataControl[HGCodeControl.dataFront].HGCodeParameter.M = data;
 8002910:	2138      	movs	r1, #56	; 0x38
					HGCodePutData(HGCodeCharToDouble(buff,j) * sign,HGCODE_M);
 8002912:	4638      	mov	r0, r7
 8002914:	e9cd 2300 	strd	r2, r3, [sp]
		HGCodeControl.HGCodeDataControl[HGCodeControl.dataFront].HGCodeParameter.M = data;
 8002918:	fb01 5b0b 	mla	fp, r1, fp, r5
					HGCodePutData(HGCodeCharToDouble(buff,j) * sign,HGCODE_M);
 800291c:	f7fd fdc6 	bl	80004ac <__aeabi_i2d>
 8002920:	e9dd 2300 	ldrd	r2, r3, [sp]
 8002924:	f7fd fe28 	bl	8000578 <__aeabi_dmul>
		HGCodeControl.HGCodeDataControl[HGCodeControl.dataFront].HGCodeParameter.M = data;
 8002928:	e9cb 0110 	strd	r0, r1, [fp, #64]	; 0x40
 800292c:	e756      	b.n	80027dc <HGCodeDecodeCommand+0xf0>
					HGCodePutData(HGCodeCharToDouble(buff,j) * sign,HGCODE_CHECKSUM);
 800292e:	4630      	mov	r0, r6
 8002930:	f7ff fe92 	bl	8002658 <HGCodeCharToDouble>
		HGCodeControl.HGCodeDataControl[HGCodeControl.dataFront].HGCodeParameter.checkSum = data;
 8002934:	f895 b241 	ldrb.w	fp, [r5, #577]	; 0x241
 8002938:	2338      	movs	r3, #56	; 0x38
 800293a:	fb0b 3303 	mla	r3, fp, r3, r3
					HGCodePutData(HGCodeCharToDouble(buff,j) * sign,HGCODE_CHECKSUM);
 800293e:	4638      	mov	r0, r7
		HGCodeControl.HGCodeDataControl[HGCodeControl.dataFront].HGCodeParameter.checkSum = data;
 8002940:	eb05 0b03 	add.w	fp, r5, r3
					HGCodePutData(HGCodeCharToDouble(buff,j) * sign,HGCODE_CHECKSUM);
 8002944:	ed8d 0b00 	vstr	d0, [sp]
 8002948:	f7fd fdb0 	bl	80004ac <__aeabi_i2d>
 800294c:	ed9d 0b00 	vldr	d0, [sp]
 8002950:	ec53 2b10 	vmov	r2, r3, d0
 8002954:	f7fd fe10 	bl	8000578 <__aeabi_dmul>
		HGCodeControl.HGCodeDataControl[HGCodeControl.dataFront].HGCodeParameter.checkSum = data;
 8002958:	e9cb 0100 	strd	r0, r1, [fp]
 800295c:	e73e      	b.n	80027dc <HGCodeDecodeCommand+0xf0>
 800295e:	bf00      	nop
 8002960:	20000240 	.word	0x20000240
 8002964:	08003542 	.word	0x08003542
 8002968:	200006cc 	.word	0x200006cc
 800296c:	20000048 	.word	0x20000048

08002970 <DecodeTimerInterruptHandler>:

void DecodeTimerInterruptHandler(void){
 8002970:	b508      	push	{r3, lr}
	if(HGCodeCheckCommandBuffer() == 1){
 8002972:	f7ff fe27 	bl	80025c4 <HGCodeCheckCommandBuffer>
 8002976:	2801      	cmp	r0, #1
 8002978:	d103      	bne.n	8002982 <DecodeTimerInterruptHandler+0x12>
		HGCodeDecodeCommand();
	}
}
 800297a:	e8bd 4008 	ldmia.w	sp!, {r3, lr}
		HGCodeDecodeCommand();
 800297e:	f7ff beb5 	b.w	80026ec <HGCodeDecodeCommand>
 8002982:	bd08      	pop	{r3, pc}

08002984 <STMotorInitHandler>:
bool STMotorInitControl(void){
	//return A4988_ControlInit();
	return TRUE;
}

bool STMotorInitHandler(STMotorHandle_t* STMotorHandle, TIM_HandleTypeDef* Handle, HAL_TIM_ActiveChannel channel,IRQn_Type IRQn){
 8002984:	b538      	push	{r3, r4, r5, lr}

	STMotorHandle->motorHandler.timHandle = Handle;
 8002986:	6041      	str	r1, [r0, #4]
	STMotorHandle->motorHandler.instance = Handle->Instance;
 8002988:	6809      	ldr	r1, [r1, #0]
 800298a:	6081      	str	r1, [r0, #8]
	STMotorHandle->motorHandler.timChaanel = channel;
	STMotorHandle->motorHandler.deviceNumber = deviceCount++;
 800298c:	490b      	ldr	r1, [pc, #44]	; (80029bc <STMotorInitHandler+0x38>)
	STMotorHandle->motorHandler.timChaanel = channel;
 800298e:	7302      	strb	r2, [r0, #12]
	STMotorHandle->motorHandler.deviceNumber = deviceCount++;
 8002990:	780a      	ldrb	r2, [r1, #0]
bool STMotorInitHandler(STMotorHandle_t* STMotorHandle, TIM_HandleTypeDef* Handle, HAL_TIM_ActiveChannel channel,IRQn_Type IRQn){
 8002992:	4604      	mov	r4, r0
	STMotorHandle->motorHandler.deviceNumber = deviceCount++;
 8002994:	1c50      	adds	r0, r2, #1
 8002996:	7008      	strb	r0, [r1, #0]
	STMotorHandle->motorHandler.isActivate = FALSE;
 8002998:	2500      	movs	r5, #0
	STMotorHandle->motorHandler.deviceNumber = deviceCount++;
 800299a:	7022      	strb	r2, [r4, #0]
	STMotorHandle->motorHandler.timPrescaler = MOTOR_PRESCALER;
 800299c:	f44f 6280 	mov.w	r2, #1024	; 0x400
	STMotorHandle->motorHandler.isActivate = FALSE;
 80029a0:	73a5      	strb	r5, [r4, #14]
	STMotorHandle->motorHandler.timPrescaler = MOTOR_PRESCALER;
 80029a2:	6122      	str	r2, [r4, #16]
	STMotorHandle->motorHandler.IRQn = IRQn;
 80029a4:	7363      	strb	r3, [r4, #13]

	HAL_NVIC_DisableIRQ(STMotorHandle->motorHandler.IRQn);
 80029a6:	7b60      	ldrb	r0, [r4, #13]
 80029a8:	b240      	sxtb	r0, r0
 80029aa:	f7fe fa41 	bl	8000e30 <HAL_NVIC_DisableIRQ>

	STMotorDeviceControl.SetEnableGPIO(STMotorHandle,FALSE);
 80029ae:	4b04      	ldr	r3, [pc, #16]	; (80029c0 <STMotorInitHandler+0x3c>)
 80029b0:	4620      	mov	r0, r4
 80029b2:	685b      	ldr	r3, [r3, #4]
 80029b4:	4629      	mov	r1, r5
 80029b6:	4798      	blx	r3
	return TRUE;
}
 80029b8:	2001      	movs	r0, #1
 80029ba:	bd38      	pop	{r3, r4, r5, pc}
 80029bc:	20000488 	.word	0x20000488
 80029c0:	20000008 	.word	0x20000008

080029c4 <STMotorInitParam>:

bool STMotorInitParam(STMotorHandle_t* STMotorHandle, uint32_t accel,uint32_t decel,uint32_t maxSpeed,uint32_t minSpeed){
 80029c4:	b510      	push	{r4, lr}
 80029c6:	9c02      	ldr	r4, [sp, #8]

	STMotorHandle->motorParam.accel = (accel) ? accel : MOTOR_ACCEL;
 80029c8:	6241      	str	r1, [r0, #36]	; 0x24
	STMotorHandle->motorParam.decel = (decel) ? decel : MOTOR_DECEL;
	STMotorHandle->motorParam.maxSpeed = (maxSpeed) ? maxSpeed : MOTOR_MAX_SPEED;
	STMotorHandle->motorParam.minSpeed = (minSpeed) ? minSpeed : MOTOR_MIN_SPEED;
 80029ca:	2c00      	cmp	r4, #0
	STMotorHandle->motorParam.decel = (decel) ? decel : MOTOR_DECEL;
 80029cc:	6282      	str	r2, [r0, #40]	; 0x28
	STMotorHandle->motorParam.minSpeed = (minSpeed) ? minSpeed : MOTOR_MIN_SPEED;
 80029ce:	bf08      	it	eq
 80029d0:	f44f 6448 	moveq.w	r4, #3200	; 0xc80
	STMotorHandle->motorParam.maxSpeed = (maxSpeed) ? maxSpeed : MOTOR_MAX_SPEED;
 80029d4:	6303      	str	r3, [r0, #48]	; 0x30
	//STMotorHandle->motorParam.microStep = (microStep) ? microStep : MOTOR_MICRO_STEP;
	//STMotorHandle->motorParam.motorStep = (motorStep) ? motorStep : MOTOR_MOTOR_STEP;

	STMotorHandle->motorParam.curPosition = 0;
 80029d6:	2300      	movs	r3, #0
	STMotorHandle->motorParam.minSpeed = (minSpeed) ? minSpeed : MOTOR_MIN_SPEED;
 80029d8:	6344      	str	r4, [r0, #52]	; 0x34
	STMotorHandle->motorParam.curPosition = 0;
 80029da:	6183      	str	r3, [r0, #24]
	STMotorHandle->motorParam.direction = DIR_UNKNOWN;
 80029dc:	2302      	movs	r3, #2
 80029de:	7503      	strb	r3, [r0, #20]
	STMotorHandle->motorParam.state = STATE_STOP;
 80029e0:	2303      	movs	r3, #3
 80029e2:	7543      	strb	r3, [r0, #21]

	return TRUE;
}
 80029e4:	2001      	movs	r0, #1
 80029e6:	bd10      	pop	{r4, pc}

080029e8 <STMotorCalcAccelSpeed>:
uint32_t STMotorCalcAccelSpeed(STMotorHandle_t* STMotorHandle,uint32_t nStep){

	uint32_t accSteps;
	uint32_t decSteps;

	uint32_t minSpeed = STMotorHandle->motorParam.minSpeed;
 80029e8:	6b42      	ldr	r2, [r0, #52]	; 0x34
	uint32_t maxSpeed = STMotorHandle->motorParam.maxSpeed;
 80029ea:	6b03      	ldr	r3, [r0, #48]	; 0x30
uint32_t STMotorCalcAccelSpeed(STMotorHandle_t* STMotorHandle,uint32_t nStep){
 80029ec:	b570      	push	{r4, r5, r6, lr}

	uint32_t acc = STMotorHandle->motorParam.accel;
	uint32_t dec = STMotorHandle->motorParam.decel;

	accSteps = (maxSpeed - minSpeed) * (maxSpeed + minSpeed);
 80029ee:	1a9e      	subs	r6, r3, r2
 80029f0:	4413      	add	r3, r2
 80029f2:	4373      	muls	r3, r6
	uint32_t acc = STMotorHandle->motorParam.accel;
 80029f4:	6a44      	ldr	r4, [r0, #36]	; 0x24
	uint32_t dec = STMotorHandle->motorParam.decel;
 80029f6:	6a85      	ldr	r5, [r0, #40]	; 0x28
	decSteps = accSteps;
	accSteps /= acc;
 80029f8:	fbb3 f2f4 	udiv	r2, r3, r4
	accSteps /= 2;

	decSteps /= dec;
 80029fc:	fbb3 f3f5 	udiv	r3, r3, r5
	accSteps /= 2;
 8002a00:	0852      	lsrs	r2, r2, #1
	decSteps /= 2;
 8002a02:	085b      	lsrs	r3, r3, #1

	if((accSteps + decSteps) > nStep){
 8002a04:	18d6      	adds	r6, r2, r3
 8002a06:	428e      	cmp	r6, r1
 8002a08:	d90c      	bls.n	8002a24 <STMotorCalcAccelSpeed+0x3c>

		decSteps = (dec * nStep) / (acc + dec);
 8002a0a:	4369      	muls	r1, r5
 8002a0c:	442c      	add	r4, r5
 8002a0e:	fbb1 f1f4 	udiv	r1, r1, r4

		if(decSteps > 1){
 8002a12:	2901      	cmp	r1, #1
			accSteps = decSteps - 1;
 8002a14:	bf8c      	ite	hi
 8002a16:	f101 33ff 	addhi.w	r3, r1, #4294967295
			if(accSteps == 0){
				accSteps = 1;
			}
		}else{
			accSteps = 0;
 8002a1a:	2300      	movls	r3, #0
		}
		STMotorHandle->motorParam.endAccel = accSteps;
 8002a1c:	6383      	str	r3, [r0, #56]	; 0x38
		STMotorHandle->motorParam.startDecel = decSteps;
	}else{
		STMotorHandle->motorParam.endAccel = accSteps;
		STMotorHandle->motorParam.startDecel = nStep - decSteps - 1;
 8002a1e:	63c1      	str	r1, [r0, #60]	; 0x3c
	}
	return 0;
}
 8002a20:	2000      	movs	r0, #0
 8002a22:	bd70      	pop	{r4, r5, r6, pc}
		STMotorHandle->motorParam.startDecel = nStep - decSteps - 1;
 8002a24:	3901      	subs	r1, #1
		STMotorHandle->motorParam.endAccel = accSteps;
 8002a26:	6382      	str	r2, [r0, #56]	; 0x38
		STMotorHandle->motorParam.startDecel = nStep - decSteps - 1;
 8002a28:	1ac9      	subs	r1, r1, r3
 8002a2a:	e7f8      	b.n	8002a1e <STMotorCalcAccelSpeed+0x36>

08002a2c <STMotorSetFreq>:

uint32_t STMotorSetFreq(STMotorHandle_t* STMotorHandle,uint32_t freq){
 8002a2c:	b538      	push	{r3, r4, r5, lr}
 8002a2e:	4605      	mov	r5, r0
 8002a30:	460c      	mov	r4, r1
	uint32_t sysFreq = HAL_RCC_GetSysClockFreq();
 8002a32:	f7fe fce9 	bl	8001408 <HAL_RCC_GetSysClockFreq>
	uint32_t period = (sysFreq/ (STMotorHandle->motorHandler.timPrescaler * (uint32_t)freq)) - 1;
 8002a36:	6929      	ldr	r1, [r5, #16]

	__HAL_TIM_SET_AUTORELOAD(STMotorHandle->motorHandler.timHandle, period);
 8002a38:	686b      	ldr	r3, [r5, #4]
 8002a3a:	681b      	ldr	r3, [r3, #0]
	uint32_t period = (sysFreq/ (STMotorHandle->motorHandler.timPrescaler * (uint32_t)freq)) - 1;
 8002a3c:	434c      	muls	r4, r1
 8002a3e:	fbb0 f0f4 	udiv	r0, r0, r4
 8002a42:	3801      	subs	r0, #1
	__HAL_TIM_SET_AUTORELOAD(STMotorHandle->motorHandler.timHandle, period);
 8002a44:	62d8      	str	r0, [r3, #44]	; 0x2c
 8002a46:	686b      	ldr	r3, [r5, #4]
 8002a48:	60d8      	str	r0, [r3, #12]
	__HAL_TIM_SET_COMPARE(STMotorHandle->motorHandler.timHandle, STMotorHandle->motorHandler.timChaanel, period >> 1);
 8002a4a:	686b      	ldr	r3, [r5, #4]
 8002a4c:	7b2a      	ldrb	r2, [r5, #12]
 8002a4e:	681b      	ldr	r3, [r3, #0]
 8002a50:	0892      	lsrs	r2, r2, #2
 8002a52:	3334      	adds	r3, #52	; 0x34
 8002a54:	0840      	lsrs	r0, r0, #1
 8002a56:	f843 0022 	str.w	r0, [r3, r2, lsl #2]
	HAL_TIM_PWM_Start_IT(STMotorHandle->motorHandler.timHandle, STMotorHandle->motorHandler.timChaanel);
 8002a5a:	6868      	ldr	r0, [r5, #4]
 8002a5c:	7b29      	ldrb	r1, [r5, #12]
 8002a5e:	f7ff f965 	bl	8001d2c <HAL_TIM_PWM_Start_IT>

	return 0;
}
 8002a62:	2000      	movs	r0, #0
 8002a64:	bd38      	pop	{r3, r4, r5, pc}
	...

08002a68 <STMotorStopFreq>:

uint32_t STMotorStopFreq(STMotorHandle_t* STMotorHandle){
 8002a68:	b538      	push	{r3, r4, r5, lr}
	STMotorDeviceControl.SetEnableGPIO(STMotorHandle,FALSE);
 8002a6a:	4d07      	ldr	r5, [pc, #28]	; (8002a88 <STMotorStopFreq+0x20>)
uint32_t STMotorStopFreq(STMotorHandle_t* STMotorHandle){
 8002a6c:	4604      	mov	r4, r0
	STMotorDeviceControl.SetEnableGPIO(STMotorHandle,FALSE);
 8002a6e:	686b      	ldr	r3, [r5, #4]
 8002a70:	2100      	movs	r1, #0
 8002a72:	4798      	blx	r3
	HAL_TIM_PWM_Stop_IT(STMotorHandle->motorHandler.timHandle,STMotorHandle->motorHandler.timChaanel);
 8002a74:	6860      	ldr	r0, [r4, #4]
 8002a76:	7b21      	ldrb	r1, [r4, #12]
 8002a78:	f7ff f98e 	bl	8001d98 <HAL_TIM_PWM_Stop_IT>

	STMotorDeviceControl.FinishCallBack(STMotorHandle);
 8002a7c:	4620      	mov	r0, r4
 8002a7e:	69ab      	ldr	r3, [r5, #24]
 8002a80:	4798      	blx	r3
	return 0;
}
 8002a82:	2000      	movs	r0, #0
 8002a84:	bd38      	pop	{r3, r4, r5, pc}
 8002a86:	bf00      	nop
 8002a88:	20000008 	.word	0x20000008

08002a8c <STMotorMoveStart>:

uint32_t STMotorMoveStart(STMotorHandle_t* STMotorHandle){
 8002a8c:	b538      	push	{r3, r4, r5, lr}

	STMotorHandle->motorParam.accu = 0;
	STMotorHandle->motorParam.nStep = 0;

	STMotorDeviceControl.SetEnableGPIO(STMotorHandle,TRUE);
 8002a8e:	4b0a      	ldr	r3, [pc, #40]	; (8002ab8 <STMotorMoveStart+0x2c>)
uint32_t STMotorMoveStart(STMotorHandle_t* STMotorHandle){
 8002a90:	4604      	mov	r4, r0
	STMotorHandle->motorParam.accu = 0;
 8002a92:	2500      	movs	r5, #0
 8002a94:	6405      	str	r5, [r0, #64]	; 0x40
	STMotorDeviceControl.SetEnableGPIO(STMotorHandle,TRUE);
 8002a96:	685b      	ldr	r3, [r3, #4]
	STMotorHandle->motorParam.nStep = 0;
 8002a98:	61c5      	str	r5, [r0, #28]
	STMotorDeviceControl.SetEnableGPIO(STMotorHandle,TRUE);
 8002a9a:	2101      	movs	r1, #1
 8002a9c:	4798      	blx	r3

	if (STMotorHandle->motorParam.endAccel != 0)
 8002a9e:	6ba3      	ldr	r3, [r4, #56]	; 0x38
 8002aa0:	b133      	cbz	r3, 8002ab0 <STMotorMoveStart+0x24>
	{
		STMotorHandle->motorParam.state = STATE_ACCEL;
 8002aa2:	7565      	strb	r5, [r4, #21]
	else
	{
		STMotorHandle->motorParam.state = STATE_DECEL;
	}

	STMotorSetFreq(STMotorHandle,STMotorHandle->motorParam.minSpeed);
 8002aa4:	6b61      	ldr	r1, [r4, #52]	; 0x34
 8002aa6:	4620      	mov	r0, r4
 8002aa8:	f7ff ffc0 	bl	8002a2c <STMotorSetFreq>

	return 0;
}
 8002aac:	2000      	movs	r0, #0
 8002aae:	bd38      	pop	{r3, r4, r5, pc}
		STMotorHandle->motorParam.state = STATE_DECEL;
 8002ab0:	2301      	movs	r3, #1
 8002ab2:	7563      	strb	r3, [r4, #21]
 8002ab4:	e7f6      	b.n	8002aa4 <STMotorMoveStart+0x18>
 8002ab6:	bf00      	nop
 8002ab8:	20000008 	.word	0x20000008

08002abc <STMotorGoStep>:

uint32_t STMotorGoStep(STMotorHandle_t* STMotorHandle,int32_t step){
 8002abc:	b538      	push	{r3, r4, r5, lr}

	if(STMotorHandle->motorHandler.isActivate == FALSE){
 8002abe:	7b82      	ldrb	r2, [r0, #14]
uint32_t STMotorGoStep(STMotorHandle_t* STMotorHandle,int32_t step){
 8002ac0:	4604      	mov	r4, r0
 8002ac2:	460b      	mov	r3, r1
	if(STMotorHandle->motorHandler.isActivate == FALSE){
 8002ac4:	f002 05ff 	and.w	r5, r2, #255	; 0xff
 8002ac8:	b9a2      	cbnz	r2, 8002af4 <STMotorGoStep+0x38>
		STMotorHandle->motorHandler.isActivate = TRUE;
 8002aca:	2101      	movs	r1, #1
		if(step == 0){
 8002acc:	2b00      	cmp	r3, #0
		STMotorHandle->motorHandler.isActivate = TRUE;
 8002ace:	7381      	strb	r1, [r0, #14]
		if(step == 0){
 8002ad0:	d010      	beq.n	8002af4 <STMotorGoStep+0x38>
 8002ad2:	4a09      	ldr	r2, [pc, #36]	; (8002af8 <STMotorGoStep+0x3c>)
			return 0;
		}else if(step < 0) {
			STMotorHandle->motorParam.targetStep = -step;
			STMotorDeviceControl.SetDirectionGPIO(STMotorHandle,DIR_BACKWORD);
		}else{
			STMotorHandle->motorParam.targetStep = step;
 8002ad4:	bfad      	iteet	ge
 8002ad6:	6203      	strge	r3, [r0, #32]
			STMotorHandle->motorParam.targetStep = -step;
 8002ad8:	425b      	neglt	r3, r3
 8002ada:	6203      	strlt	r3, [r0, #32]
			STMotorDeviceControl.SetDirectionGPIO(STMotorHandle,DIR_FORWORD);
 8002adc:	4629      	movge	r1, r5
			STMotorDeviceControl.SetDirectionGPIO(STMotorHandle,DIR_BACKWORD);
 8002ade:	bfb4      	ite	lt
 8002ae0:	6813      	ldrlt	r3, [r2, #0]
			STMotorDeviceControl.SetDirectionGPIO(STMotorHandle,DIR_FORWORD);
 8002ae2:	6813      	ldrge	r3, [r2, #0]
 8002ae4:	4798      	blx	r3
		}
		STMotorCalcAccelSpeed(STMotorHandle,STMotorHandle->motorParam.targetStep);
 8002ae6:	6a21      	ldr	r1, [r4, #32]
 8002ae8:	4620      	mov	r0, r4
 8002aea:	f7ff ff7d 	bl	80029e8 <STMotorCalcAccelSpeed>

		STMotorMoveStart(STMotorHandle);
 8002aee:	4620      	mov	r0, r4
 8002af0:	f7ff ffcc 	bl	8002a8c <STMotorMoveStart>
		return 0;
	}else{
		return 0;
	}
}
 8002af4:	2000      	movs	r0, #0
 8002af6:	bd38      	pop	{r3, r4, r5, pc}
 8002af8:	20000008 	.word	0x20000008

08002afc <STMotorGoSpeed>:

uint32_t STMotorGoSpeed(STMotorHandle_t* STMotorHandle,int16_t speed,uint16_t timeOut){
 8002afc:	b5f8      	push	{r3, r4, r5, r6, r7, lr}
	if(STMotorHandle->motorHandler.isActivate == FALSE){
 8002afe:	7b83      	ldrb	r3, [r0, #14]
uint32_t STMotorGoSpeed(STMotorHandle_t* STMotorHandle,int16_t speed,uint16_t timeOut){
 8002b00:	460e      	mov	r6, r1
 8002b02:	4604      	mov	r4, r0
	if(STMotorHandle->motorHandler.isActivate == FALSE){
 8002b04:	f003 01ff 	and.w	r1, r3, #255	; 0xff
 8002b08:	bb1b      	cbnz	r3, 8002b52 <STMotorGoSpeed+0x56>
		STMotorHandle->motorHandler.isActivate = TRUE;
 8002b0a:	2301      	movs	r3, #1
		if(speed == 0){
 8002b0c:	2e00      	cmp	r6, #0
		STMotorHandle->motorHandler.isActivate = TRUE;
 8002b0e:	7383      	strb	r3, [r0, #14]
		if(speed == 0){
 8002b10:	d102      	bne.n	8002b18 <STMotorGoSpeed+0x1c>
			STMotorHandle->motorHandler.isActivate = FALSE;
 8002b12:	7386      	strb	r6, [r0, #14]
			return 0;
 8002b14:	4630      	mov	r0, r6
 8002b16:	bdf8      	pop	{r3, r4, r5, r6, r7, pc}
 8002b18:	4f0f      	ldr	r7, [pc, #60]	; (8002b58 <STMotorGoSpeed+0x5c>)
		}else if(speed < 0) {
 8002b1a:	da17      	bge.n	8002b4c <STMotorGoSpeed+0x50>
			STMotorDeviceControl.SetDirectionGPIO(STMotorHandle,DIR_BACKWORD);
 8002b1c:	683a      	ldr	r2, [r7, #0]
 8002b1e:	4619      	mov	r1, r3
 8002b20:	4790      	blx	r2
		}else{
			STMotorDeviceControl.SetDirectionGPIO(STMotorHandle,DIR_FORWORD);
		}
		STMotorHandle->motorParam.accu = 0;
 8002b22:	2500      	movs	r5, #0
		STMotorHandle->motorParam.endAccel = 0;
		STMotorHandle->motorParam.startDecel = 0;
		STMotorHandle->motorParam.targetStep = 0;
		STMotorHandle->motorParam.nStep = 0;

		STMotorHandle->motorParam.state = STATE_INFINITE;
 8002b24:	2306      	movs	r3, #6
		STMotorHandle->motorParam.accu = 0;
 8002b26:	6425      	str	r5, [r4, #64]	; 0x40

		STMotorDeviceControl.SetEnableGPIO(STMotorHandle,TRUE);
 8002b28:	4620      	mov	r0, r4
		STMotorHandle->motorParam.endAccel = 0;
 8002b2a:	63a5      	str	r5, [r4, #56]	; 0x38
		STMotorDeviceControl.SetEnableGPIO(STMotorHandle,TRUE);
 8002b2c:	2101      	movs	r1, #1
		STMotorHandle->motorParam.startDecel = 0;
 8002b2e:	63e5      	str	r5, [r4, #60]	; 0x3c
		STMotorHandle->motorParam.targetStep = 0;
 8002b30:	6225      	str	r5, [r4, #32]
		STMotorHandle->motorParam.nStep = 0;
 8002b32:	61e5      	str	r5, [r4, #28]
		STMotorHandle->motorParam.state = STATE_INFINITE;
 8002b34:	7563      	strb	r3, [r4, #21]
		STMotorDeviceControl.SetEnableGPIO(STMotorHandle,TRUE);
 8002b36:	687b      	ldr	r3, [r7, #4]
 8002b38:	4798      	blx	r3
		STMotorSetFreq(STMotorHandle,abs(speed));
 8002b3a:	ea86 71e6 	eor.w	r1, r6, r6, asr #31
 8002b3e:	eba1 71e6 	sub.w	r1, r1, r6, asr #31
 8002b42:	4620      	mov	r0, r4
 8002b44:	f7ff ff72 	bl	8002a2c <STMotorSetFreq>
 8002b48:	4628      	mov	r0, r5
 8002b4a:	bdf8      	pop	{r3, r4, r5, r6, r7, pc}
			STMotorDeviceControl.SetDirectionGPIO(STMotorHandle,DIR_FORWORD);
 8002b4c:	683b      	ldr	r3, [r7, #0]
 8002b4e:	4798      	blx	r3
 8002b50:	e7e7      	b.n	8002b22 <STMotorGoSpeed+0x26>
		return 0;
	}else{
		return -1;
 8002b52:	f04f 30ff 	mov.w	r0, #4294967295
	}
}
 8002b56:	bdf8      	pop	{r3, r4, r5, r6, r7, pc}
 8002b58:	20000008 	.word	0x20000008

08002b5c <STMotorAutoHome>:

uint32_t STMotorAutoHome(STMotorHandle_t* STMotorHandle,uint16_t speed){
 8002b5c:	b510      	push	{r4, lr}
 8002b5e:	4604      	mov	r4, r0

	if(speed == 0){
 8002b60:	b951      	cbnz	r1, 8002b78 <STMotorAutoHome+0x1c>
		STMotorGoSpeed(STMotorHandle,-MOTOR_MIN_SPEED,0);
 8002b62:	460a      	mov	r2, r1
 8002b64:	f5a1 6148 	sub.w	r1, r1, #3200	; 0xc80
	}else{
		STMotorGoSpeed(STMotorHandle,speed,0);
 8002b68:	f7ff ffc8 	bl	8002afc <STMotorGoSpeed>
	}
	HAL_NVIC_EnableIRQ(STMotorHandle->motorHandler.IRQn);
 8002b6c:	7b60      	ldrb	r0, [r4, #13]
 8002b6e:	b240      	sxtb	r0, r0
 8002b70:	f7fe f952 	bl	8000e18 <HAL_NVIC_EnableIRQ>
	return 0;
}
 8002b74:	2000      	movs	r0, #0
 8002b76:	bd10      	pop	{r4, pc}
		STMotorGoSpeed(STMotorHandle,speed,0);
 8002b78:	2200      	movs	r2, #0
 8002b7a:	b209      	sxth	r1, r1
 8002b7c:	e7f4      	b.n	8002b68 <STMotorAutoHome+0xc>
	...

08002b80 <STMotorGoMilli>:

uint32_t STMotorGoMilli(STMotorHandle_t* STMotorHandle,double milli){
 8002b80:	b510      	push	{r4, lr}
	//return nStep/(STMotorDeviceControl.GetMicroStep() * STMotorDeviceControl.GetMotorStep()) * STMotorDeviceControl.GetMotorPitch();
	return nStep/(MOTOR_DRIVER_MiCRO_STEP * MOTOR_STEP) * MOTOR_SCREW_PITCH;
}
uint32_t STMotorCalcMilliToStep(double milli){
	//return (milli / STMotorDeviceControl.GetMotorPitch()) * (STMotorDeviceControl.GetMicroStep() * STMotorDeviceControl.GetMotorStep());
	return (milli / (double)MOTOR_SCREW_PITCH) * (MOTOR_DRIVER_MiCRO_STEP * MOTOR_STEP);
 8002b82:	2200      	movs	r2, #0
uint32_t STMotorGoMilli(STMotorHandle_t* STMotorHandle,double milli){
 8002b84:	4604      	mov	r4, r0
	return (milli / (double)MOTOR_SCREW_PITCH) * (MOTOR_DRIVER_MiCRO_STEP * MOTOR_STEP);
 8002b86:	f04f 537f 	mov.w	r3, #1069547520	; 0x3fc00000
 8002b8a:	ec51 0b10 	vmov	r0, r1, d0
 8002b8e:	f7fd fcf3 	bl	8000578 <__aeabi_dmul>
 8002b92:	2200      	movs	r2, #0
 8002b94:	4b05      	ldr	r3, [pc, #20]	; (8002bac <STMotorGoMilli+0x2c>)
 8002b96:	f7fd fcef 	bl	8000578 <__aeabi_dmul>
 8002b9a:	f7fd feff 	bl	800099c <__aeabi_d2uiz>
	return STMotorGoStep(STMotorHandle, STMotorCalcMilliToStep(milli));
 8002b9e:	4601      	mov	r1, r0
 8002ba0:	4620      	mov	r0, r4
}
 8002ba2:	e8bd 4010 	ldmia.w	sp!, {r4, lr}
	return STMotorGoStep(STMotorHandle, STMotorCalcMilliToStep(milli));
 8002ba6:	f7ff bf89 	b.w	8002abc <STMotorGoStep>
 8002baa:	bf00      	nop
 8002bac:	40a90000 	.word	0x40a90000

08002bb0 <STMotorPWMPulseInterruptHandle>:
}




uint32_t STMotorPWMPulseInterruptHandle(STMotorHandle_t* STMotorHandle){
 8002bb0:	b5f8      	push	{r3, r4, r5, r6, r7, lr}

	uint32_t relStep = ++STMotorHandle->motorParam.nStep;
 8002bb2:	69c3      	ldr	r3, [r0, #28]
 8002bb4:	3301      	adds	r3, #1
 8002bb6:	61c3      	str	r3, [r0, #28]
	uint32_t targetStep = STMotorHandle->motorParam.targetStep;
 8002bb8:	6a06      	ldr	r6, [r0, #32]
	uint32_t speed = STMotorHandle->motorParam.curSpeed;
 8002bba:	6ac1      	ldr	r1, [r0, #44]	; 0x2c
	uint32_t accel = STMotorHandle->motorParam.accel << 16;
 8002bbc:	6a44      	ldr	r4, [r0, #36]	; 0x24
	uint32_t decel = STMotorHandle->motorParam.decel << 16;
 8002bbe:	6a82      	ldr	r2, [r0, #40]	; 0x28

	STMotorHandle->motorParam.curPosition += STMotorHandle->motorParam.direction ? 1 : -1;
 8002bc0:	7d05      	ldrb	r5, [r0, #20]
 8002bc2:	6987      	ldr	r7, [r0, #24]
 8002bc4:	2d00      	cmp	r5, #0
 8002bc6:	bf14      	ite	ne
 8002bc8:	2501      	movne	r5, #1
 8002bca:	f04f 35ff 	moveq.w	r5, #4294967295
 8002bce:	443d      	add	r5, r7
 8002bd0:	6185      	str	r5, [r0, #24]

	bool speedUpdated = FALSE;

	switch(STMotorHandle->motorParam.state){
 8002bd2:	7d45      	ldrb	r5, [r0, #21]
 8002bd4:	2d06      	cmp	r5, #6
 8002bd6:	d80f      	bhi.n	8002bf8 <STMotorPWMPulseInterruptHandle+0x48>
 8002bd8:	e8df f005 	tbb	[pc, r5]
 8002bdc:	6d364210 	.word	0x6d364210
 8002be0:	6d42      	.short	0x6d42
 8002be2:	04          	.byte	0x04
 8002be3:	00          	.byte	0x00

		case STATE_INFINITE:
			if(STMotorHandle->motorParam.state == STATE_HARDSTOP){
 8002be4:	7d43      	ldrb	r3, [r0, #21]
 8002be6:	2b05      	cmp	r3, #5
 8002be8:	d101      	bne.n	8002bee <STMotorPWMPulseInterruptHandle+0x3e>
			if(relStep >= targetStep || speed <= STMotorHandle->motorParam.minSpeed){
				STMotorHandle->motorParam.state = STATE_STOP;
			}else if(relStep <= STMotorHandle->motorParam.startDecel){
				STMotorHandle->motorParam.state = STATE_STAND;
			}else if(STMotorHandle->motorParam.state == STATE_HARDSTOP){
				STMotorHandle->motorParam.state = STATE_STOP;
 8002bea:	2303      	movs	r3, #3
 8002bec:	e003      	b.n	8002bf6 <STMotorPWMPulseInterruptHandle+0x46>
			}else if(STMotorHandle->motorParam.state == STATE_SOFTSTOP){
 8002bee:	7d43      	ldrb	r3, [r0, #21]
 8002bf0:	2b04      	cmp	r3, #4
 8002bf2:	d101      	bne.n	8002bf8 <STMotorPWMPulseInterruptHandle+0x48>
				STMotorHandle->motorParam.state = STATE_DECEL;
 8002bf4:	2301      	movs	r3, #1
				STMotorHandle->motorParam.state = STATE_STOP;
 8002bf6:	7543      	strb	r3, [r0, #21]
		default:
			break;
	}

	return 0;
}
 8002bf8:	2000      	movs	r0, #0
 8002bfa:	bdf8      	pop	{r3, r4, r5, r6, r7, pc}
			if(relStep >= targetStep){
 8002bfc:	42b3      	cmp	r3, r6
 8002bfe:	d2f4      	bcs.n	8002bea <STMotorPWMPulseInterruptHandle+0x3a>
			}else if(relStep >= STMotorHandle->motorParam.endAccel){
 8002c00:	6b82      	ldr	r2, [r0, #56]	; 0x38
 8002c02:	4293      	cmp	r3, r2
 8002c04:	d301      	bcc.n	8002c0a <STMotorPWMPulseInterruptHandle+0x5a>
				STMotorHandle->motorParam.state = STATE_STAND;
 8002c06:	2302      	movs	r3, #2
 8002c08:	e7f5      	b.n	8002bf6 <STMotorPWMPulseInterruptHandle+0x46>
				STMotorHandle->motorParam.accu += accel / speed;
 8002c0a:	6c02      	ldr	r2, [r0, #64]	; 0x40
					speed = 1;
 8002c0c:	2900      	cmp	r1, #0
 8002c0e:	bf08      	it	eq
 8002c10:	2101      	moveq	r1, #1
	uint32_t accel = STMotorHandle->motorParam.accel << 16;
 8002c12:	0423      	lsls	r3, r4, #16
				STMotorHandle->motorParam.accu += accel / speed;
 8002c14:	fbb3 f3f1 	udiv	r3, r3, r1
 8002c18:	4413      	add	r3, r2
 8002c1a:	6403      	str	r3, [r0, #64]	; 0x40
	bool speedUpdated = FALSE;
 8002c1c:	2300      	movs	r3, #0
				while (STMotorHandle->motorParam.accu >= (0X10000L))
 8002c1e:	6c02      	ldr	r2, [r0, #64]	; 0x40
 8002c20:	f5b2 3f80 	cmp.w	r2, #65536	; 0x10000
 8002c24:	d209      	bcs.n	8002c3a <STMotorPWMPulseInterruptHandle+0x8a>
				if(speedUpdated == TRUE){
 8002c26:	2b00      	cmp	r3, #0
 8002c28:	d0e6      	beq.n	8002bf8 <STMotorPWMPulseInterruptHandle+0x48>
					if(speed > STMotorHandle->motorParam.maxSpeed)
 8002c2a:	6b03      	ldr	r3, [r0, #48]	; 0x30
 8002c2c:	4299      	cmp	r1, r3
 8002c2e:	d900      	bls.n	8002c32 <STMotorPWMPulseInterruptHandle+0x82>
						speed = STMotorHandle->motorParam.maxSpeed;
 8002c30:	6b01      	ldr	r1, [r0, #48]	; 0x30
					STMotorHandle->motorParam.curSpeed = speed;
 8002c32:	62c1      	str	r1, [r0, #44]	; 0x2c
					STMotorSetFreq(STMotorHandle,speed);
 8002c34:	f7ff fefa 	bl	8002a2c <STMotorSetFreq>
 8002c38:	e7de      	b.n	8002bf8 <STMotorPWMPulseInterruptHandle+0x48>
					STMotorHandle->motorParam.accu -= (0X10000L);
 8002c3a:	6c03      	ldr	r3, [r0, #64]	; 0x40
 8002c3c:	f5a3 3380 	sub.w	r3, r3, #65536	; 0x10000
 8002c40:	6403      	str	r3, [r0, #64]	; 0x40
					speed += 1;
 8002c42:	3101      	adds	r1, #1
					speedUpdated = TRUE;
 8002c44:	2301      	movs	r3, #1
 8002c46:	e7ea      	b.n	8002c1e <STMotorPWMPulseInterruptHandle+0x6e>
			if( relStep >= STMotorHandle->motorParam.startDecel){
 8002c48:	6bc2      	ldr	r2, [r0, #60]	; 0x3c
 8002c4a:	4293      	cmp	r3, r2
 8002c4c:	d302      	bcc.n	8002c54 <STMotorPWMPulseInterruptHandle+0xa4>
				STMotorHandle->motorParam.accu = 0;
 8002c4e:	2300      	movs	r3, #0
 8002c50:	6403      	str	r3, [r0, #64]	; 0x40
 8002c52:	e7cf      	b.n	8002bf4 <STMotorPWMPulseInterruptHandle+0x44>
			}else if(relStep <= STMotorHandle->motorParam.endAccel){
 8002c54:	6b82      	ldr	r2, [r0, #56]	; 0x38
 8002c56:	4293      	cmp	r3, r2
 8002c58:	d8ce      	bhi.n	8002bf8 <STMotorPWMPulseInterruptHandle+0x48>
				STMotorHandle->motorParam.accu = 0;
 8002c5a:	2300      	movs	r3, #0
 8002c5c:	6403      	str	r3, [r0, #64]	; 0x40
 8002c5e:	e7ca      	b.n	8002bf6 <STMotorPWMPulseInterruptHandle+0x46>
			if(relStep >= targetStep || speed <= STMotorHandle->motorParam.minSpeed){
 8002c60:	42b3      	cmp	r3, r6
 8002c62:	d2c2      	bcs.n	8002bea <STMotorPWMPulseInterruptHandle+0x3a>
 8002c64:	6b44      	ldr	r4, [r0, #52]	; 0x34
 8002c66:	42a1      	cmp	r1, r4
 8002c68:	d9bf      	bls.n	8002bea <STMotorPWMPulseInterruptHandle+0x3a>
			}else if(relStep <= STMotorHandle->motorParam.startDecel){
 8002c6a:	6bc4      	ldr	r4, [r0, #60]	; 0x3c
 8002c6c:	42a3      	cmp	r3, r4
 8002c6e:	d9ca      	bls.n	8002c06 <STMotorPWMPulseInterruptHandle+0x56>
			}else if(STMotorHandle->motorParam.state == STATE_HARDSTOP){
 8002c70:	7d43      	ldrb	r3, [r0, #21]
 8002c72:	2b05      	cmp	r3, #5
 8002c74:	d0b9      	beq.n	8002bea <STMotorPWMPulseInterruptHandle+0x3a>
				STMotorHandle->motorParam.accu += decel / speed;
 8002c76:	6c04      	ldr	r4, [r0, #64]	; 0x40
		        if (speed == 0) speed =1;
 8002c78:	2900      	cmp	r1, #0
 8002c7a:	bf08      	it	eq
 8002c7c:	2101      	moveq	r1, #1
	uint32_t decel = STMotorHandle->motorParam.decel << 16;
 8002c7e:	0413      	lsls	r3, r2, #16
				STMotorHandle->motorParam.accu += decel / speed;
 8002c80:	fbb3 f3f1 	udiv	r3, r3, r1
 8002c84:	4423      	add	r3, r4
 8002c86:	6403      	str	r3, [r0, #64]	; 0x40
				bool speedUpdated = FALSE;
 8002c88:	2300      	movs	r3, #0
				while (STMotorHandle->motorParam.accu >= (0X10000L))
 8002c8a:	6c02      	ldr	r2, [r0, #64]	; 0x40
 8002c8c:	f5b2 3f80 	cmp.w	r2, #65536	; 0x10000
 8002c90:	d206      	bcs.n	8002ca0 <STMotorPWMPulseInterruptHandle+0xf0>
				if(speedUpdated == TRUE){
 8002c92:	2b00      	cmp	r3, #0
 8002c94:	d0b0      	beq.n	8002bf8 <STMotorPWMPulseInterruptHandle+0x48>
					if(speed < STMotorHandle->motorParam.minSpeed)
 8002c96:	6b43      	ldr	r3, [r0, #52]	; 0x34
 8002c98:	4299      	cmp	r1, r3
						speed = STMotorHandle->motorParam.minSpeed;
 8002c9a:	bf38      	it	cc
 8002c9c:	6b41      	ldrcc	r1, [r0, #52]	; 0x34
 8002c9e:	e7c8      	b.n	8002c32 <STMotorPWMPulseInterruptHandle+0x82>
					STMotorHandle->motorParam.accu -= (0X10000L);
 8002ca0:	6c03      	ldr	r3, [r0, #64]	; 0x40
					if (speed > 1){
 8002ca2:	2901      	cmp	r1, #1
					STMotorHandle->motorParam.accu -= (0X10000L);
 8002ca4:	f5a3 3380 	sub.w	r3, r3, #65536	; 0x10000
 8002ca8:	6403      	str	r3, [r0, #64]	; 0x40
						speed -=1;
 8002caa:	bf8c      	ite	hi
 8002cac:	f101 31ff 	addhi.w	r1, r1, #4294967295
 8002cb0:	2101      	movls	r1, #1
 8002cb2:	2301      	movs	r3, #1
 8002cb4:	e7e9      	b.n	8002c8a <STMotorPWMPulseInterruptHandle+0xda>
			STMotorHandle->motorParam.curPosition += (STMotorHandle->motorParam.nStep * (STMotorHandle->motorParam.direction) ? 1 : -1);
 8002cb6:	69c2      	ldr	r2, [r0, #28]
 8002cb8:	7d03      	ldrb	r3, [r0, #20]
 8002cba:	435a      	muls	r2, r3
 8002cbc:	6982      	ldr	r2, [r0, #24]
 8002cbe:	bf14      	ite	ne
 8002cc0:	2301      	movne	r3, #1
 8002cc2:	f04f 33ff 	moveq.w	r3, #4294967295
 8002cc6:	4413      	add	r3, r2
 8002cc8:	6183      	str	r3, [r0, #24]
			STMotorHandle->motorParam.nStep = 0;
 8002cca:	2300      	movs	r3, #0
 8002ccc:	61c3      	str	r3, [r0, #28]
			STMotorHandle->motorParam.targetStep = 0;
 8002cce:	6203      	str	r3, [r0, #32]
			STMotorHandle->motorHandler.isActivate = FALSE;
 8002cd0:	7383      	strb	r3, [r0, #14]
			STMotorHandle->motorParam.state = STATE_STOP;
 8002cd2:	2303      	movs	r3, #3
 8002cd4:	7543      	strb	r3, [r0, #21]
			STMotorStopFreq(STMotorHandle);
 8002cd6:	f7ff fec7 	bl	8002a68 <STMotorStopFreq>
			break;
 8002cda:	e78d      	b.n	8002bf8 <STMotorPWMPulseInterruptHandle+0x48>

08002cdc <STMotorEXTInterruptHandle>:

uint32_t STMotorEXTInterruptHandle(STMotorHandle_t* STMotorHandle){
 8002cdc:	b510      	push	{r4, lr}
 8002cde:	4604      	mov	r4, r0
	HAL_NVIC_DisableIRQ(STMotorHandle->motorHandler.IRQn);
 8002ce0:	7b40      	ldrb	r0, [r0, #13]
 8002ce2:	b240      	sxtb	r0, r0
 8002ce4:	f7fe f8a4 	bl	8000e30 <HAL_NVIC_DisableIRQ>
	return STMotorHandle->motorParam.state = STATE_HARDSTOP;
 8002ce8:	2305      	movs	r3, #5
	STMotorHandle->motorParam.curPosition = 0;
 8002cea:	2000      	movs	r0, #0
	return STMotorHandle->motorParam.state = STATE_HARDSTOP;
 8002cec:	7563      	strb	r3, [r4, #21]
	STMotorHandle->motorParam.curPosition = 0;
 8002cee:	61a0      	str	r0, [r4, #24]
	STMotorHardStop(STMotorHandle);
	STMotorSetHome(STMotorHandle);
	return 0;
}
 8002cf0:	bd10      	pop	{r4, pc}
	...

08002cf4 <SetDirectionGPIO>:
	NULL,
	FinishCallBack
};

void SetDirectionGPIO(STMotorHandle_t *STMotorHandle, MotorDirection_t direction){
	switch(STMotorHandle->motorHandler.deviceNumber){
 8002cf4:	7803      	ldrb	r3, [r0, #0]
 8002cf6:	b93b      	cbnz	r3, 8002d08 <SetDirectionGPIO+0x14>
		case 0x00:
			HAL_GPIO_WritePin(MOTOR_1_DIR_GPIOX,MOTOR_1_DIR_PINX,direction ? (GPIO_PIN_SET) : (GPIO_PIN_RESET));
 8002cf8:	1c0a      	adds	r2, r1, #0
 8002cfa:	bf18      	it	ne
 8002cfc:	2201      	movne	r2, #1
 8002cfe:	f44f 4100 	mov.w	r1, #32768	; 0x8000
 8002d02:	4802      	ldr	r0, [pc, #8]	; (8002d0c <SetDirectionGPIO+0x18>)
 8002d04:	f7fe bb00 	b.w	8001308 <HAL_GPIO_WritePin>
 8002d08:	4770      	bx	lr
 8002d0a:	bf00      	nop
 8002d0c:	40020400 	.word	0x40020400

08002d10 <SetEnableGPIO>:
			break;
	}
}

void SetEnableGPIO(STMotorHandle_t *STMotorHandle, bool flag){
	switch(STMotorHandle->motorHandler.deviceNumber){
 8002d10:	7803      	ldrb	r3, [r0, #0]
 8002d12:	b93b      	cbnz	r3, 8002d24 <SetEnableGPIO+0x14>
		case 0x00:
			HAL_GPIO_WritePin(MOTOR_1_ENABLE_GPIOX,MOTOR_1_ENABLE_PINX,flag ? (GPIO_PIN_RESET) : (GPIO_PIN_SET));
 8002d14:	fab1 f281 	clz	r2, r1
 8002d18:	0952      	lsrs	r2, r2, #5
 8002d1a:	f44f 7100 	mov.w	r1, #512	; 0x200
 8002d1e:	4802      	ldr	r0, [pc, #8]	; (8002d28 <SetEnableGPIO+0x18>)
 8002d20:	f7fe baf2 	b.w	8001308 <HAL_GPIO_WritePin>
 8002d24:	4770      	bx	lr
 8002d26:	bf00      	nop
 8002d28:	40020800 	.word	0x40020800

08002d2c <FinishCallBack>:
}


void FinishCallBack(STMotorHandle_t *STMotorHandle){

	switch(STMotorHandle->motorHandler.deviceNumber){
 8002d2c:	7803      	ldrb	r3, [r0, #0]
 8002d2e:	2b03      	cmp	r3, #3
 8002d30:	d811      	bhi.n	8002d56 <FinishCallBack+0x2a>
 8002d32:	e8df f003 	tbb	[pc, r3]
 8002d36:	0702      	.short	0x0702
 8002d38:	0d0a      	.short	0x0d0a
		case 0x00:
			HAL_UART_Transmit_IT(&huart2,(uint8_t*)"MOVE OK A",9);
 8002d3a:	4907      	ldr	r1, [pc, #28]	; (8002d58 <FinishCallBack+0x2c>)
 8002d3c:	2209      	movs	r2, #9
			break;
		case 0x02:
			HAL_UART_Transmit_IT(&huart2,(uint8_t*)"MOVE OK C",9);
			break;
		case 0x03:
			HAL_UART_Transmit_IT(&huart2,(uint8_t*)"MOVE OK P",9);
 8002d3e:	4807      	ldr	r0, [pc, #28]	; (8002d5c <FinishCallBack+0x30>)
 8002d40:	f7ff ba73 	b.w	800222a <HAL_UART_Transmit_IT>
			HAL_UART_Transmit_IT(&huart2,(uint8_t*)"MOVE OK B",9);
 8002d44:	2209      	movs	r2, #9
 8002d46:	4906      	ldr	r1, [pc, #24]	; (8002d60 <FinishCallBack+0x34>)
 8002d48:	e7f9      	b.n	8002d3e <FinishCallBack+0x12>
			HAL_UART_Transmit_IT(&huart2,(uint8_t*)"MOVE OK C",9);
 8002d4a:	2209      	movs	r2, #9
 8002d4c:	4905      	ldr	r1, [pc, #20]	; (8002d64 <FinishCallBack+0x38>)
 8002d4e:	e7f6      	b.n	8002d3e <FinishCallBack+0x12>
			HAL_UART_Transmit_IT(&huart2,(uint8_t*)"MOVE OK P",9);
 8002d50:	2209      	movs	r2, #9
 8002d52:	4905      	ldr	r1, [pc, #20]	; (8002d68 <FinishCallBack+0x3c>)
 8002d54:	e7f3      	b.n	8002d3e <FinishCallBack+0x12>
 8002d56:	4770      	bx	lr
 8002d58:	0800354a 	.word	0x0800354a
 8002d5c:	2000070c 	.word	0x2000070c
 8002d60:	08003554 	.word	0x08003554
 8002d64:	0800355e 	.word	0x0800355e
 8002d68:	08003568 	.word	0x08003568

08002d6c <PWMPulseInterruptHandle>:
	return;
}


void PWMPulseInterruptHandle(TIM_HandleTypeDef *htim){
	if(htim->Instance == STMotorDevices[0].motorHandler.instance){
 8002d6c:	4b04      	ldr	r3, [pc, #16]	; (8002d80 <PWMPulseInterruptHandle+0x14>)
 8002d6e:	6801      	ldr	r1, [r0, #0]
 8002d70:	689a      	ldr	r2, [r3, #8]
 8002d72:	4291      	cmp	r1, r2
 8002d74:	d102      	bne.n	8002d7c <PWMPulseInterruptHandle+0x10>
		STMotorPWMPulseInterruptHandle(&STMotorDevices[0]);
 8002d76:	4618      	mov	r0, r3
 8002d78:	f7ff bf1a 	b.w	8002bb0 <STMotorPWMPulseInterruptHandle>
 8002d7c:	4770      	bx	lr
 8002d7e:	bf00      	nop
 8002d80:	20000490 	.word	0x20000490

08002d84 <EXTInterruptHandle>:
	}
}

void EXTInterruptHandle(void){

	if(__HAL_GPIO_EXTI_GET_FLAG(MOTOR_1_ENDSTOP_PIN)){
 8002d84:	4b03      	ldr	r3, [pc, #12]	; (8002d94 <EXTInterruptHandle+0x10>)
 8002d86:	695b      	ldr	r3, [r3, #20]
 8002d88:	07db      	lsls	r3, r3, #31
 8002d8a:	d502      	bpl.n	8002d92 <EXTInterruptHandle+0xe>
		STMotorEXTInterruptHandle(&STMotorDevices[0]);
 8002d8c:	4802      	ldr	r0, [pc, #8]	; (8002d98 <EXTInterruptHandle+0x14>)
 8002d8e:	f7ff bfa5 	b.w	8002cdc <STMotorEXTInterruptHandle>
 8002d92:	4770      	bx	lr
 8002d94:	40013c00 	.word	0x40013c00
 8002d98:	20000490 	.word	0x20000490

08002d9c <MX_DMA_Init>:

/** 
  * Enable DMA controller clock
  */
void MX_DMA_Init(void) 
{
 8002d9c:	b507      	push	{r0, r1, r2, lr}
  /* DMA controller clock enable */
  __HAL_RCC_DMA1_CLK_ENABLE();
 8002d9e:	4b0b      	ldr	r3, [pc, #44]	; (8002dcc <MX_DMA_Init+0x30>)
 8002da0:	2200      	movs	r2, #0
 8002da2:	9201      	str	r2, [sp, #4]
 8002da4:	6b19      	ldr	r1, [r3, #48]	; 0x30
 8002da6:	f441 1100 	orr.w	r1, r1, #2097152	; 0x200000
 8002daa:	6319      	str	r1, [r3, #48]	; 0x30
 8002dac:	6b1b      	ldr	r3, [r3, #48]	; 0x30
 8002dae:	f403 1300 	and.w	r3, r3, #2097152	; 0x200000
 8002db2:	9301      	str	r3, [sp, #4]

  /* DMA interrupt init */
  /* DMA1_Stream5_IRQn interrupt configuration */
  HAL_NVIC_SetPriority(DMA1_Stream5_IRQn, 0, 0);
 8002db4:	4611      	mov	r1, r2
 8002db6:	2010      	movs	r0, #16
  __HAL_RCC_DMA1_CLK_ENABLE();
 8002db8:	9b01      	ldr	r3, [sp, #4]
  HAL_NVIC_SetPriority(DMA1_Stream5_IRQn, 0, 0);
 8002dba:	f7fd fff9 	bl	8000db0 <HAL_NVIC_SetPriority>
  HAL_NVIC_EnableIRQ(DMA1_Stream5_IRQn);
 8002dbe:	2010      	movs	r0, #16
 8002dc0:	f7fe f82a 	bl	8000e18 <HAL_NVIC_EnableIRQ>

}
 8002dc4:	b003      	add	sp, #12
 8002dc6:	f85d fb04 	ldr.w	pc, [sp], #4
 8002dca:	bf00      	nop
 8002dcc:	40023800 	.word	0x40023800

08002dd0 <MX_GPIO_Init>:
        * Output
        * EVENT_OUT
        * EXTI
*/
void MX_GPIO_Init(void)
{
 8002dd0:	e92d 43f0 	stmdb	sp!, {r4, r5, r6, r7, r8, r9, lr}

  GPIO_InitTypeDef GPIO_InitStruct = {0};
 8002dd4:	2214      	movs	r2, #20
{
 8002dd6:	b08b      	sub	sp, #44	; 0x2c
  GPIO_InitTypeDef GPIO_InitStruct = {0};
 8002dd8:	eb0d 0002 	add.w	r0, sp, r2
 8002ddc:	2100      	movs	r1, #0
 8002dde:	f000 fb83 	bl	80034e8 <memset>

  /* GPIO Ports Clock Enable */
  __HAL_RCC_GPIOC_CLK_ENABLE();
 8002de2:	2400      	movs	r4, #0
 8002de4:	4b3c      	ldr	r3, [pc, #240]	; (8002ed8 <MX_GPIO_Init+0x108>)
 8002de6:	9401      	str	r4, [sp, #4]
 8002de8:	6b1a      	ldr	r2, [r3, #48]	; 0x30
  __HAL_RCC_GPIOH_CLK_ENABLE();
  __HAL_RCC_GPIOA_CLK_ENABLE();
  __HAL_RCC_GPIOB_CLK_ENABLE();

  /*Configure GPIO pin Output Level */
  HAL_GPIO_WritePin(COOLER_SIGNAL_GPIO_Port, COOLER_SIGNAL_Pin, GPIO_PIN_RESET);
 8002dea:	f8df 90f8 	ldr.w	r9, [pc, #248]	; 8002ee4 <MX_GPIO_Init+0x114>

  /*Configure GPIO pin Output Level */
  HAL_GPIO_WritePin(GPIOB, SERVO_EN_Pin|SERVO_RESET_Pin|MOTOR_DIR_1_Pin, GPIO_PIN_RESET);
 8002dee:	f8df 80f8 	ldr.w	r8, [pc, #248]	; 8002ee8 <MX_GPIO_Init+0x118>

  /*Configure GPIO pin Output Level */
  HAL_GPIO_WritePin(MOTOR_EN_1_GPIO_Port, MOTOR_EN_1_Pin, GPIO_PIN_RESET);
 8002df2:	4e3a      	ldr	r6, [pc, #232]	; (8002edc <MX_GPIO_Init+0x10c>)
  __HAL_RCC_GPIOC_CLK_ENABLE();
 8002df4:	f042 0204 	orr.w	r2, r2, #4
 8002df8:	631a      	str	r2, [r3, #48]	; 0x30
 8002dfa:	6b1a      	ldr	r2, [r3, #48]	; 0x30
 8002dfc:	f002 0204 	and.w	r2, r2, #4
 8002e00:	9201      	str	r2, [sp, #4]
 8002e02:	9a01      	ldr	r2, [sp, #4]
  __HAL_RCC_GPIOH_CLK_ENABLE();
 8002e04:	9402      	str	r4, [sp, #8]
 8002e06:	6b1a      	ldr	r2, [r3, #48]	; 0x30
 8002e08:	f042 0280 	orr.w	r2, r2, #128	; 0x80
 8002e0c:	631a      	str	r2, [r3, #48]	; 0x30
 8002e0e:	6b1a      	ldr	r2, [r3, #48]	; 0x30
 8002e10:	f002 0280 	and.w	r2, r2, #128	; 0x80
 8002e14:	9202      	str	r2, [sp, #8]
 8002e16:	9a02      	ldr	r2, [sp, #8]
  __HAL_RCC_GPIOA_CLK_ENABLE();
 8002e18:	9403      	str	r4, [sp, #12]
 8002e1a:	6b1a      	ldr	r2, [r3, #48]	; 0x30
 8002e1c:	f042 0201 	orr.w	r2, r2, #1
 8002e20:	631a      	str	r2, [r3, #48]	; 0x30
 8002e22:	6b1a      	ldr	r2, [r3, #48]	; 0x30
 8002e24:	f002 0201 	and.w	r2, r2, #1
 8002e28:	9203      	str	r2, [sp, #12]
 8002e2a:	9a03      	ldr	r2, [sp, #12]
  __HAL_RCC_GPIOB_CLK_ENABLE();
 8002e2c:	9404      	str	r4, [sp, #16]
 8002e2e:	6b1a      	ldr	r2, [r3, #48]	; 0x30
 8002e30:	f042 0202 	orr.w	r2, r2, #2
 8002e34:	631a      	str	r2, [r3, #48]	; 0x30
 8002e36:	6b1b      	ldr	r3, [r3, #48]	; 0x30
 8002e38:	f003 0302 	and.w	r3, r3, #2
 8002e3c:	9304      	str	r3, [sp, #16]
  HAL_GPIO_WritePin(COOLER_SIGNAL_GPIO_Port, COOLER_SIGNAL_Pin, GPIO_PIN_RESET);
 8002e3e:	4622      	mov	r2, r4
 8002e40:	4648      	mov	r0, r9
 8002e42:	2110      	movs	r1, #16
  __HAL_RCC_GPIOB_CLK_ENABLE();
 8002e44:	9b04      	ldr	r3, [sp, #16]
  HAL_GPIO_WritePin(COOLER_SIGNAL_GPIO_Port, COOLER_SIGNAL_Pin, GPIO_PIN_RESET);
 8002e46:	f7fe fa5f 	bl	8001308 <HAL_GPIO_WritePin>
  HAL_GPIO_WritePin(GPIOB, SERVO_EN_Pin|SERVO_RESET_Pin|MOTOR_DIR_1_Pin, GPIO_PIN_RESET);
 8002e4a:	4622      	mov	r2, r4
 8002e4c:	4640      	mov	r0, r8
 8002e4e:	f248 0103 	movw	r1, #32771	; 0x8003
 8002e52:	f7fe fa59 	bl	8001308 <HAL_GPIO_WritePin>
  HAL_GPIO_WritePin(MOTOR_EN_1_GPIO_Port, MOTOR_EN_1_Pin, GPIO_PIN_RESET);
 8002e56:	4622      	mov	r2, r4
 8002e58:	4630      	mov	r0, r6
 8002e5a:	f44f 7100 	mov.w	r1, #512	; 0x200
 8002e5e:	f7fe fa53 	bl	8001308 <HAL_GPIO_WritePin>

  /*Configure GPIO pins : PCPin PCPin */
  GPIO_InitStruct.Pin = MOTOR_ENDBTN_1_Pin|POWER_BTN_Pin;
 8002e62:	2509      	movs	r5, #9
  GPIO_InitStruct.Mode = GPIO_MODE_IT_RISING;
 8002e64:	4b1e      	ldr	r3, [pc, #120]	; (8002ee0 <MX_GPIO_Init+0x110>)
 8002e66:	9306      	str	r3, [sp, #24]
  GPIO_InitStruct.Pull = GPIO_NOPULL;
  HAL_GPIO_Init(GPIOC, &GPIO_InitStruct);
 8002e68:	a905      	add	r1, sp, #20
 8002e6a:	4630      	mov	r0, r6

  /*Configure GPIO pin : PtPin */
  GPIO_InitStruct.Pin = COOLER_SIGNAL_Pin;
  GPIO_InitStruct.Mode = GPIO_MODE_OUTPUT_PP;
 8002e6c:	2701      	movs	r7, #1
  GPIO_InitStruct.Pin = MOTOR_ENDBTN_1_Pin|POWER_BTN_Pin;
 8002e6e:	9505      	str	r5, [sp, #20]
  GPIO_InitStruct.Pull = GPIO_NOPULL;
 8002e70:	9407      	str	r4, [sp, #28]
  HAL_GPIO_Init(GPIOC, &GPIO_InitStruct);
 8002e72:	f7fe f98d 	bl	8001190 <HAL_GPIO_Init>
  GPIO_InitStruct.Pin = COOLER_SIGNAL_Pin;
 8002e76:	2310      	movs	r3, #16
  GPIO_InitStruct.Pull = GPIO_NOPULL;
  GPIO_InitStruct.Speed = GPIO_SPEED_FREQ_LOW;
  HAL_GPIO_Init(COOLER_SIGNAL_GPIO_Port, &GPIO_InitStruct);
 8002e78:	a905      	add	r1, sp, #20
 8002e7a:	4648      	mov	r0, r9
  GPIO_InitStruct.Pin = COOLER_SIGNAL_Pin;
 8002e7c:	9305      	str	r3, [sp, #20]
  GPIO_InitStruct.Mode = GPIO_MODE_OUTPUT_PP;
 8002e7e:	9706      	str	r7, [sp, #24]
  GPIO_InitStruct.Pull = GPIO_NOPULL;
 8002e80:	9407      	str	r4, [sp, #28]
  GPIO_InitStruct.Speed = GPIO_SPEED_FREQ_LOW;
 8002e82:	9408      	str	r4, [sp, #32]
  HAL_GPIO_Init(COOLER_SIGNAL_GPIO_Port, &GPIO_InitStruct);
 8002e84:	f7fe f984 	bl	8001190 <HAL_GPIO_Init>

  /*Configure GPIO pins : PBPin PBPin PBPin */
  GPIO_InitStruct.Pin = SERVO_EN_Pin|SERVO_RESET_Pin|MOTOR_DIR_1_Pin;
 8002e88:	f248 0303 	movw	r3, #32771	; 0x8003
  GPIO_InitStruct.Mode = GPIO_MODE_OUTPUT_PP;
  GPIO_InitStruct.Pull = GPIO_NOPULL;
  GPIO_InitStruct.Speed = GPIO_SPEED_FREQ_LOW;
  HAL_GPIO_Init(GPIOB, &GPIO_InitStruct);
 8002e8c:	a905      	add	r1, sp, #20
 8002e8e:	4640      	mov	r0, r8
  GPIO_InitStruct.Pin = SERVO_EN_Pin|SERVO_RESET_Pin|MOTOR_DIR_1_Pin;
 8002e90:	9305      	str	r3, [sp, #20]
  GPIO_InitStruct.Mode = GPIO_MODE_OUTPUT_PP;
 8002e92:	9706      	str	r7, [sp, #24]
  GPIO_InitStruct.Pull = GPIO_NOPULL;
 8002e94:	9407      	str	r4, [sp, #28]
  GPIO_InitStruct.Speed = GPIO_SPEED_FREQ_LOW;
 8002e96:	9408      	str	r4, [sp, #32]
  HAL_GPIO_Init(GPIOB, &GPIO_InitStruct);
 8002e98:	f7fe f97a 	bl	8001190 <HAL_GPIO_Init>

  /*Configure GPIO pin : PtPin */
  GPIO_InitStruct.Pin = MOTOR_EN_1_Pin;
 8002e9c:	f44f 7300 	mov.w	r3, #512	; 0x200
  GPIO_InitStruct.Mode = GPIO_MODE_OUTPUT_PP;
  GPIO_InitStruct.Pull = GPIO_NOPULL;
  GPIO_InitStruct.Speed = GPIO_SPEED_FREQ_LOW;
  HAL_GPIO_Init(MOTOR_EN_1_GPIO_Port, &GPIO_InitStruct);
 8002ea0:	a905      	add	r1, sp, #20
 8002ea2:	4630      	mov	r0, r6
  GPIO_InitStruct.Pin = MOTOR_EN_1_Pin;
 8002ea4:	9305      	str	r3, [sp, #20]
  GPIO_InitStruct.Mode = GPIO_MODE_OUTPUT_PP;
 8002ea6:	9706      	str	r7, [sp, #24]
  GPIO_InitStruct.Pull = GPIO_NOPULL;
 8002ea8:	9407      	str	r4, [sp, #28]
  GPIO_InitStruct.Speed = GPIO_SPEED_FREQ_LOW;
 8002eaa:	9408      	str	r4, [sp, #32]
  HAL_GPIO_Init(MOTOR_EN_1_GPIO_Port, &GPIO_InitStruct);
 8002eac:	f7fe f970 	bl	8001190 <HAL_GPIO_Init>

  /* EXTI interrupt init*/
  HAL_NVIC_SetPriority(EXTI0_IRQn, 0, 0);
 8002eb0:	4622      	mov	r2, r4
 8002eb2:	4621      	mov	r1, r4
 8002eb4:	2006      	movs	r0, #6
 8002eb6:	f7fd ff7b 	bl	8000db0 <HAL_NVIC_SetPriority>
  HAL_NVIC_EnableIRQ(EXTI0_IRQn);
 8002eba:	2006      	movs	r0, #6
 8002ebc:	f7fd ffac 	bl	8000e18 <HAL_NVIC_EnableIRQ>

  HAL_NVIC_SetPriority(EXTI3_IRQn, 0, 0);
 8002ec0:	4622      	mov	r2, r4
 8002ec2:	4621      	mov	r1, r4
 8002ec4:	4628      	mov	r0, r5
 8002ec6:	f7fd ff73 	bl	8000db0 <HAL_NVIC_SetPriority>
  HAL_NVIC_EnableIRQ(EXTI3_IRQn);
 8002eca:	4628      	mov	r0, r5
 8002ecc:	f7fd ffa4 	bl	8000e18 <HAL_NVIC_EnableIRQ>

}
 8002ed0:	b00b      	add	sp, #44	; 0x2c
 8002ed2:	e8bd 83f0 	ldmia.w	sp!, {r4, r5, r6, r7, r8, r9, pc}
 8002ed6:	bf00      	nop
 8002ed8:	40023800 	.word	0x40023800
 8002edc:	40020800 	.word	0x40020800
 8002ee0:	10110000 	.word	0x10110000
 8002ee4:	40020000 	.word	0x40020000
 8002ee8:	40020400 	.word	0x40020400

08002eec <MX_I2C2_Init>:

I2C_HandleTypeDef hi2c2;

/* I2C2 init function */
void MX_I2C2_Init(void)
{
 8002eec:	b508      	push	{r3, lr}

  hi2c2.Instance = I2C2;
 8002eee:	480c      	ldr	r0, [pc, #48]	; (8002f20 <MX_I2C2_Init+0x34>)
  hi2c2.Init.ClockSpeed = 100000;
 8002ef0:	4b0c      	ldr	r3, [pc, #48]	; (8002f24 <MX_I2C2_Init+0x38>)
 8002ef2:	f8df e034 	ldr.w	lr, [pc, #52]	; 8002f28 <MX_I2C2_Init+0x3c>
  hi2c2.Init.DutyCycle = I2C_DUTYCYCLE_2;
  hi2c2.Init.OwnAddress1 = 0;
  hi2c2.Init.AddressingMode = I2C_ADDRESSINGMODE_7BIT;
 8002ef6:	f44f 4280 	mov.w	r2, #16384	; 0x4000
  hi2c2.Init.ClockSpeed = 100000;
 8002efa:	e880 4008 	stmia.w	r0, {r3, lr}
  hi2c2.Init.DutyCycle = I2C_DUTYCYCLE_2;
 8002efe:	2300      	movs	r3, #0
 8002f00:	6083      	str	r3, [r0, #8]
  hi2c2.Init.OwnAddress1 = 0;
 8002f02:	60c3      	str	r3, [r0, #12]
  hi2c2.Init.AddressingMode = I2C_ADDRESSINGMODE_7BIT;
 8002f04:	6102      	str	r2, [r0, #16]
  hi2c2.Init.DualAddressMode = I2C_DUALADDRESS_DISABLE;
 8002f06:	6143      	str	r3, [r0, #20]
  hi2c2.Init.OwnAddress2 = 0;
 8002f08:	6183      	str	r3, [r0, #24]
  hi2c2.Init.GeneralCallMode = I2C_GENERALCALL_DISABLE;
 8002f0a:	61c3      	str	r3, [r0, #28]
  hi2c2.Init.NoStretchMode = I2C_NOSTRETCH_DISABLE;
 8002f0c:	6203      	str	r3, [r0, #32]
  if (HAL_I2C_Init(&hi2c2) != HAL_OK)
 8002f0e:	f7fe fa0d 	bl	800132c <HAL_I2C_Init>
 8002f12:	b118      	cbz	r0, 8002f1c <MX_I2C2_Init+0x30>
  {
    Error_Handler();
  }

}
 8002f14:	e8bd 4008 	ldmia.w	sp!, {r3, lr}
    Error_Handler();
 8002f18:	f000 b8aa 	b.w	8003070 <Error_Handler>
 8002f1c:	bd08      	pop	{r3, pc}
 8002f1e:	bf00      	nop
 8002f20:	200005a0 	.word	0x200005a0
 8002f24:	40005800 	.word	0x40005800
 8002f28:	000186a0 	.word	0x000186a0

08002f2c <HAL_I2C_MspInit>:

void HAL_I2C_MspInit(I2C_HandleTypeDef* i2cHandle)
{
 8002f2c:	b530      	push	{r4, r5, lr}
 8002f2e:	4604      	mov	r4, r0
 8002f30:	b089      	sub	sp, #36	; 0x24

  GPIO_InitTypeDef GPIO_InitStruct = {0};
 8002f32:	2214      	movs	r2, #20
 8002f34:	2100      	movs	r1, #0
 8002f36:	a803      	add	r0, sp, #12
 8002f38:	f000 fad6 	bl	80034e8 <memset>
  if(i2cHandle->Instance==I2C2)
 8002f3c:	6822      	ldr	r2, [r4, #0]
 8002f3e:	4b15      	ldr	r3, [pc, #84]	; (8002f94 <HAL_I2C_MspInit+0x68>)
 8002f40:	429a      	cmp	r2, r3
 8002f42:	d124      	bne.n	8002f8e <HAL_I2C_MspInit+0x62>
  {
  /* USER CODE BEGIN I2C2_MspInit 0 */

  /* USER CODE END I2C2_MspInit 0 */
  
    __HAL_RCC_GPIOB_CLK_ENABLE();
 8002f44:	4c14      	ldr	r4, [pc, #80]	; (8002f98 <HAL_I2C_MspInit+0x6c>)
    GPIO_InitStruct.Pin = SENSOR_SCL_Pin|SENSOR_SDA_Pin;
    GPIO_InitStruct.Mode = GPIO_MODE_AF_OD;
    GPIO_InitStruct.Pull = GPIO_PULLUP;
    GPIO_InitStruct.Speed = GPIO_SPEED_FREQ_VERY_HIGH;
    GPIO_InitStruct.Alternate = GPIO_AF4_I2C2;
    HAL_GPIO_Init(GPIOB, &GPIO_InitStruct);
 8002f46:	4815      	ldr	r0, [pc, #84]	; (8002f9c <HAL_I2C_MspInit+0x70>)
    __HAL_RCC_GPIOB_CLK_ENABLE();
 8002f48:	2500      	movs	r5, #0
 8002f4a:	9501      	str	r5, [sp, #4]
 8002f4c:	6b23      	ldr	r3, [r4, #48]	; 0x30
 8002f4e:	f043 0302 	orr.w	r3, r3, #2
 8002f52:	6323      	str	r3, [r4, #48]	; 0x30
 8002f54:	6b23      	ldr	r3, [r4, #48]	; 0x30
 8002f56:	f003 0302 	and.w	r3, r3, #2
 8002f5a:	9301      	str	r3, [sp, #4]
 8002f5c:	9b01      	ldr	r3, [sp, #4]
    GPIO_InitStruct.Pin = SENSOR_SCL_Pin|SENSOR_SDA_Pin;
 8002f5e:	f44f 6340 	mov.w	r3, #3072	; 0xc00
 8002f62:	9303      	str	r3, [sp, #12]
    GPIO_InitStruct.Mode = GPIO_MODE_AF_OD;
 8002f64:	2312      	movs	r3, #18
 8002f66:	9304      	str	r3, [sp, #16]
    GPIO_InitStruct.Pull = GPIO_PULLUP;
 8002f68:	2301      	movs	r3, #1
 8002f6a:	9305      	str	r3, [sp, #20]
    GPIO_InitStruct.Speed = GPIO_SPEED_FREQ_VERY_HIGH;
 8002f6c:	2303      	movs	r3, #3
 8002f6e:	9306      	str	r3, [sp, #24]
    HAL_GPIO_Init(GPIOB, &GPIO_InitStruct);
 8002f70:	a903      	add	r1, sp, #12
    GPIO_InitStruct.Alternate = GPIO_AF4_I2C2;
 8002f72:	2304      	movs	r3, #4
 8002f74:	9307      	str	r3, [sp, #28]
    HAL_GPIO_Init(GPIOB, &GPIO_InitStruct);
 8002f76:	f7fe f90b 	bl	8001190 <HAL_GPIO_Init>

    /* I2C2 clock enable */
    __HAL_RCC_I2C2_CLK_ENABLE();
 8002f7a:	9502      	str	r5, [sp, #8]
 8002f7c:	6c23      	ldr	r3, [r4, #64]	; 0x40
 8002f7e:	f443 0380 	orr.w	r3, r3, #4194304	; 0x400000
 8002f82:	6423      	str	r3, [r4, #64]	; 0x40
 8002f84:	6c23      	ldr	r3, [r4, #64]	; 0x40
 8002f86:	f403 0380 	and.w	r3, r3, #4194304	; 0x400000
 8002f8a:	9302      	str	r3, [sp, #8]
 8002f8c:	9b02      	ldr	r3, [sp, #8]
  /* USER CODE BEGIN I2C2_MspInit 1 */

  /* USER CODE END I2C2_MspInit 1 */
  }
}
 8002f8e:	b009      	add	sp, #36	; 0x24
 8002f90:	bd30      	pop	{r4, r5, pc}
 8002f92:	bf00      	nop
 8002f94:	40005800 	.word	0x40005800
 8002f98:	40023800 	.word	0x40023800
 8002f9c:	40020400 	.word	0x40020400

08002fa0 <SystemClock_Config>:
/**
  * @brief System Clock Configuration
  * @retval None
  */
void SystemClock_Config(void)
{
 8002fa0:	b530      	push	{r4, r5, lr}
 8002fa2:	b095      	sub	sp, #84	; 0x54
  RCC_OscInitTypeDef RCC_OscInitStruct = {0};
 8002fa4:	2234      	movs	r2, #52	; 0x34
 8002fa6:	2100      	movs	r1, #0
 8002fa8:	a807      	add	r0, sp, #28
 8002faa:	f000 fa9d 	bl	80034e8 <memset>
  RCC_ClkInitTypeDef RCC_ClkInitStruct = {0};
 8002fae:	2100      	movs	r1, #0
 8002fb0:	2214      	movs	r2, #20
 8002fb2:	a802      	add	r0, sp, #8
 8002fb4:	f000 fa98 	bl	80034e8 <memset>

  /**Configure the main internal regulator output voltage 
  */
  __HAL_RCC_PWR_CLK_ENABLE();
 8002fb8:	2500      	movs	r5, #0
 8002fba:	4b1b      	ldr	r3, [pc, #108]	; (8003028 <SystemClock_Config+0x88>)
 8002fbc:	9500      	str	r5, [sp, #0]
 8002fbe:	6c1a      	ldr	r2, [r3, #64]	; 0x40
 8002fc0:	f042 5280 	orr.w	r2, r2, #268435456	; 0x10000000
 8002fc4:	641a      	str	r2, [r3, #64]	; 0x40
 8002fc6:	6c1b      	ldr	r3, [r3, #64]	; 0x40
 8002fc8:	f003 5380 	and.w	r3, r3, #268435456	; 0x10000000
 8002fcc:	9300      	str	r3, [sp, #0]
 8002fce:	9b00      	ldr	r3, [sp, #0]
  __HAL_PWR_VOLTAGESCALING_CONFIG(PWR_REGULATOR_VOLTAGE_SCALE1);
 8002fd0:	4b16      	ldr	r3, [pc, #88]	; (800302c <SystemClock_Config+0x8c>)
 8002fd2:	9501      	str	r5, [sp, #4]
 8002fd4:	681a      	ldr	r2, [r3, #0]
 8002fd6:	f442 4240 	orr.w	r2, r2, #49152	; 0xc000
 8002fda:	601a      	str	r2, [r3, #0]
 8002fdc:	681b      	ldr	r3, [r3, #0]
  */
  RCC_OscInitStruct.OscillatorType = RCC_OSCILLATORTYPE_HSI;
  RCC_OscInitStruct.HSIState = RCC_HSI_ON;
  RCC_OscInitStruct.HSICalibrationValue = RCC_HSICALIBRATION_DEFAULT;
  RCC_OscInitStruct.PLL.PLLState = RCC_PLL_ON;
  RCC_OscInitStruct.PLL.PLLSource = RCC_PLLSOURCE_HSI;
 8002fde:	950e      	str	r5, [sp, #56]	; 0x38
  __HAL_PWR_VOLTAGESCALING_CONFIG(PWR_REGULATOR_VOLTAGE_SCALE1);
 8002fe0:	f403 4340 	and.w	r3, r3, #49152	; 0xc000
 8002fe4:	9301      	str	r3, [sp, #4]
 8002fe6:	9b01      	ldr	r3, [sp, #4]
  RCC_OscInitStruct.HSIState = RCC_HSI_ON;
 8002fe8:	2301      	movs	r3, #1
 8002fea:	930a      	str	r3, [sp, #40]	; 0x28
  RCC_OscInitStruct.HSICalibrationValue = RCC_HSICALIBRATION_DEFAULT;
 8002fec:	2310      	movs	r3, #16
 8002fee:	930b      	str	r3, [sp, #44]	; 0x2c
  RCC_OscInitStruct.PLL.PLLM = 16;
 8002ff0:	930f      	str	r3, [sp, #60]	; 0x3c
  RCC_OscInitStruct.PLL.PLLN = 336;
 8002ff2:	f44f 73a8 	mov.w	r3, #336	; 0x150
  RCC_OscInitStruct.OscillatorType = RCC_OSCILLATORTYPE_HSI;
 8002ff6:	2402      	movs	r4, #2
  RCC_OscInitStruct.PLL.PLLN = 336;
 8002ff8:	9310      	str	r3, [sp, #64]	; 0x40
  RCC_OscInitStruct.PLL.PLLP = RCC_PLLP_DIV4;
  RCC_OscInitStruct.PLL.PLLQ = 4;
  RCC_OscInitStruct.PLL.PLLR = 2;
  if (HAL_RCC_OscConfig(&RCC_OscInitStruct) != HAL_OK)
 8002ffa:	a807      	add	r0, sp, #28
  RCC_OscInitStruct.PLL.PLLP = RCC_PLLP_DIV4;
 8002ffc:	2304      	movs	r3, #4
 8002ffe:	9311      	str	r3, [sp, #68]	; 0x44
  RCC_OscInitStruct.PLL.PLLQ = 4;
 8003000:	9312      	str	r3, [sp, #72]	; 0x48
  RCC_OscInitStruct.OscillatorType = RCC_OSCILLATORTYPE_HSI;
 8003002:	9407      	str	r4, [sp, #28]
  RCC_OscInitStruct.PLL.PLLState = RCC_PLL_ON;
 8003004:	940d      	str	r4, [sp, #52]	; 0x34
  RCC_OscInitStruct.PLL.PLLR = 2;
 8003006:	9413      	str	r4, [sp, #76]	; 0x4c
  if (HAL_RCC_OscConfig(&RCC_OscInitStruct) != HAL_OK)
 8003008:	f7fe fae6 	bl	80015d8 <HAL_RCC_OscConfig>
  {
    Error_Handler();
  }
  /**Initializes the CPU, AHB and APB busses clocks 
  */
  RCC_ClkInitStruct.ClockType = RCC_CLOCKTYPE_HCLK|RCC_CLOCKTYPE_SYSCLK
 800300c:	230f      	movs	r3, #15
 800300e:	9302      	str	r3, [sp, #8]
  RCC_ClkInitStruct.SYSCLKSource = RCC_SYSCLKSOURCE_PLLCLK;
  RCC_ClkInitStruct.AHBCLKDivider = RCC_SYSCLK_DIV1;
  RCC_ClkInitStruct.APB1CLKDivider = RCC_HCLK_DIV2;
  RCC_ClkInitStruct.APB2CLKDivider = RCC_HCLK_DIV1;

  if (HAL_RCC_ClockConfig(&RCC_ClkInitStruct, FLASH_LATENCY_2) != HAL_OK)
 8003010:	4621      	mov	r1, r4
  RCC_ClkInitStruct.APB1CLKDivider = RCC_HCLK_DIV2;
 8003012:	f44f 5380 	mov.w	r3, #4096	; 0x1000
  if (HAL_RCC_ClockConfig(&RCC_ClkInitStruct, FLASH_LATENCY_2) != HAL_OK)
 8003016:	a802      	add	r0, sp, #8
  RCC_ClkInitStruct.SYSCLKSource = RCC_SYSCLKSOURCE_PLLCLK;
 8003018:	9403      	str	r4, [sp, #12]
  RCC_ClkInitStruct.AHBCLKDivider = RCC_SYSCLK_DIV1;
 800301a:	9504      	str	r5, [sp, #16]
  RCC_ClkInitStruct.APB1CLKDivider = RCC_HCLK_DIV2;
 800301c:	9305      	str	r3, [sp, #20]
  RCC_ClkInitStruct.APB2CLKDivider = RCC_HCLK_DIV1;
 800301e:	9506      	str	r5, [sp, #24]
  if (HAL_RCC_ClockConfig(&RCC_ClkInitStruct, FLASH_LATENCY_2) != HAL_OK)
 8003020:	f7fe fa20 	bl	8001464 <HAL_RCC_ClockConfig>
  {
    Error_Handler();
  }
}
 8003024:	b015      	add	sp, #84	; 0x54
 8003026:	bd30      	pop	{r4, r5, pc}
 8003028:	40023800 	.word	0x40023800
 800302c:	40007000 	.word	0x40007000

08003030 <main>:
{
 8003030:	b508      	push	{r3, lr}
  HAL_Init();
 8003032:	f7fd fe7f 	bl	8000d34 <HAL_Init>
  SystemClock_Config();
 8003036:	f7ff ffb3 	bl	8002fa0 <SystemClock_Config>
  MX_GPIO_Init();
 800303a:	f7ff fec9 	bl	8002dd0 <MX_GPIO_Init>
  MX_DMA_Init();
 800303e:	f7ff fead 	bl	8002d9c <MX_DMA_Init>
  MX_USART2_UART_Init();
 8003042:	f000 f965 	bl	8003310 <MX_USART2_UART_Init>
  MX_USART1_UART_Init();
 8003046:	f000 f947 	bl	80032d8 <MX_USART1_UART_Init>
  MX_TIM5_Init();
 800304a:	f000 f90f 	bl	800326c <MX_TIM5_Init>
  MX_TIM6_Init();
 800304e:	f000 f885 	bl	800315c <MX_TIM6_Init>
  MX_I2C2_Init();
 8003052:	f7ff ff4b 	bl	8002eec <MX_I2C2_Init>
  startHGCode(&htim6,&huart2,&hdma_usart2_rx);
 8003056:	4a03      	ldr	r2, [pc, #12]	; (8003064 <main+0x34>)
 8003058:	4903      	ldr	r1, [pc, #12]	; (8003068 <main+0x38>)
 800305a:	4804      	ldr	r0, [pc, #16]	; (800306c <main+0x3c>)
 800305c:	f7ff fa1c 	bl	8002498 <startHGCode>
 8003060:	e7fe      	b.n	8003060 <main+0x30>
 8003062:	bf00      	nop
 8003064:	2000066c 	.word	0x2000066c
 8003068:	2000070c 	.word	0x2000070c
 800306c:	20000630 	.word	0x20000630

08003070 <Error_Handler>:
/**
  * @brief  This function is executed in case of error occurrence.
  * @retval None
  */
void Error_Handler(void)
{
 8003070:	4770      	bx	lr
	...

08003074 <HAL_MspInit>:
/* USER CODE END 0 */
/**
  * Initializes the Global MSP.
  */
void HAL_MspInit(void)
{
 8003074:	b507      	push	{r0, r1, r2, lr}
  /* USER CODE BEGIN MspInit 0 */

  /* USER CODE END MspInit 0 */

  __HAL_RCC_SYSCFG_CLK_ENABLE();
 8003076:	4b0e      	ldr	r3, [pc, #56]	; (80030b0 <HAL_MspInit+0x3c>)
 8003078:	2100      	movs	r1, #0
 800307a:	9100      	str	r1, [sp, #0]
 800307c:	6c5a      	ldr	r2, [r3, #68]	; 0x44
 800307e:	f442 4280 	orr.w	r2, r2, #16384	; 0x4000
 8003082:	645a      	str	r2, [r3, #68]	; 0x44
 8003084:	6c5a      	ldr	r2, [r3, #68]	; 0x44
 8003086:	f402 4280 	and.w	r2, r2, #16384	; 0x4000
 800308a:	9200      	str	r2, [sp, #0]
 800308c:	9a00      	ldr	r2, [sp, #0]
  __HAL_RCC_PWR_CLK_ENABLE();
 800308e:	9101      	str	r1, [sp, #4]
 8003090:	6c1a      	ldr	r2, [r3, #64]	; 0x40
 8003092:	f042 5280 	orr.w	r2, r2, #268435456	; 0x10000000
 8003096:	641a      	str	r2, [r3, #64]	; 0x40
 8003098:	6c1b      	ldr	r3, [r3, #64]	; 0x40
 800309a:	f003 5380 	and.w	r3, r3, #268435456	; 0x10000000
 800309e:	9301      	str	r3, [sp, #4]

  HAL_NVIC_SetPriorityGrouping(NVIC_PRIORITYGROUP_0);
 80030a0:	2007      	movs	r0, #7
  __HAL_RCC_PWR_CLK_ENABLE();
 80030a2:	9b01      	ldr	r3, [sp, #4]
  HAL_NVIC_SetPriorityGrouping(NVIC_PRIORITYGROUP_0);
 80030a4:	f7fd fe72 	bl	8000d8c <HAL_NVIC_SetPriorityGrouping>
  /* System interrupt init*/

  /* USER CODE BEGIN MspInit 1 */

  /* USER CODE END MspInit 1 */
}
 80030a8:	b003      	add	sp, #12
 80030aa:	f85d fb04 	ldr.w	pc, [sp], #4
 80030ae:	bf00      	nop
 80030b0:	40023800 	.word	0x40023800

080030b4 <HAL_TIM_PWM_PulseFinishedCallback>:

/* USER CODE BEGIN 1 */
void HAL_TIM_PWM_PulseFinishedCallback(TIM_HandleTypeDef *htim){
	PWMPulseInterruptHandle(htim);
 80030b4:	f7ff be5a 	b.w	8002d6c <PWMPulseInterruptHandle>

080030b8 <NMI_Handler>:
 80030b8:	4770      	bx	lr

080030ba <HardFault_Handler>:

/**
  * @brief This function handles Hard fault interrupt.
  */
void HardFault_Handler(void)
{
 80030ba:	e7fe      	b.n	80030ba <HardFault_Handler>

080030bc <MemManage_Handler>:

/**
  * @brief This function handles Memory management fault.
  */
void MemManage_Handler(void)
{
 80030bc:	e7fe      	b.n	80030bc <MemManage_Handler>

080030be <BusFault_Handler>:

/**
  * @brief This function handles Pre-fetch fault, memory access fault.
  */
void BusFault_Handler(void)
{
 80030be:	e7fe      	b.n	80030be <BusFault_Handler>

080030c0 <UsageFault_Handler>:

/**
  * @brief This function handles Undefined instruction or illegal state.
  */
void UsageFault_Handler(void)
{
 80030c0:	e7fe      	b.n	80030c0 <UsageFault_Handler>

080030c2 <SVC_Handler>:
 80030c2:	4770      	bx	lr

080030c4 <DebugMon_Handler>:
 80030c4:	4770      	bx	lr

080030c6 <PendSV_Handler>:

/**
  * @brief This function handles Pendable request for system service.
  */
void PendSV_Handler(void)
{
 80030c6:	4770      	bx	lr

080030c8 <SysTick_Handler>:
void SysTick_Handler(void)
{
  /* USER CODE BEGIN SysTick_IRQn 0 */

  /* USER CODE END SysTick_IRQn 0 */
  HAL_IncTick();
 80030c8:	f7fd be4e 	b.w	8000d68 <HAL_IncTick>

080030cc <EXTI0_IRQHandler>:

/**
  * @brief This function handles EXTI line0 interrupt.
  */
void EXTI0_IRQHandler(void)
{
 80030cc:	b508      	push	{r3, lr}
  /* USER CODE BEGIN EXTI0_IRQn 0 */
	EXTInterruptHandle();
 80030ce:	f7ff fe59 	bl	8002d84 <EXTInterruptHandle>
  /* USER CODE END EXTI0_IRQn 0 */
  HAL_GPIO_EXTI_IRQHandler(GPIO_PIN_0);
 80030d2:	2001      	movs	r0, #1
  /* USER CODE BEGIN EXTI0_IRQn 1 */

  /* USER CODE END EXTI0_IRQn 1 */
}
 80030d4:	e8bd 4008 	ldmia.w	sp!, {r3, lr}
  HAL_GPIO_EXTI_IRQHandler(GPIO_PIN_0);
 80030d8:	f7fe b91c 	b.w	8001314 <HAL_GPIO_EXTI_IRQHandler>

080030dc <EXTI3_IRQHandler>:
void EXTI3_IRQHandler(void)
{
  /* USER CODE BEGIN EXTI3_IRQn 0 */

  /* USER CODE END EXTI3_IRQn 0 */
  HAL_GPIO_EXTI_IRQHandler(GPIO_PIN_3);
 80030dc:	2008      	movs	r0, #8
 80030de:	f7fe b919 	b.w	8001314 <HAL_GPIO_EXTI_IRQHandler>
	...

080030e4 <DMA1_Stream5_IRQHandler>:
void DMA1_Stream5_IRQHandler(void)
{
  /* USER CODE BEGIN DMA1_Stream5_IRQn 0 */

  /* USER CODE END DMA1_Stream5_IRQn 0 */
  HAL_DMA_IRQHandler(&hdma_usart2_rx);
 80030e4:	4801      	ldr	r0, [pc, #4]	; (80030ec <DMA1_Stream5_IRQHandler+0x8>)
 80030e6:	f7fd bf99 	b.w	800101c <HAL_DMA_IRQHandler>
 80030ea:	bf00      	nop
 80030ec:	2000066c 	.word	0x2000066c

080030f0 <TIM5_IRQHandler>:
void TIM5_IRQHandler(void)
{
  /* USER CODE BEGIN TIM5_IRQn 0 */

  /* USER CODE END TIM5_IRQn 0 */
  HAL_TIM_IRQHandler(&htim5);
 80030f0:	4801      	ldr	r0, [pc, #4]	; (80030f8 <TIM5_IRQHandler+0x8>)
 80030f2:	f7fe bc78 	b.w	80019e6 <HAL_TIM_IRQHandler>
 80030f6:	bf00      	nop
 80030f8:	200005f4 	.word	0x200005f4

080030fc <TIM6_DAC_IRQHandler>:

/**
  * @brief This function handles TIM6 global interrupt and DAC channel underrun error interrupt.
  */
void TIM6_DAC_IRQHandler(void)
{
 80030fc:	b508      	push	{r3, lr}
  /* USER CODE BEGIN TIM6_DAC_IRQn 0 */
	DecodeTimerInterruptHandler();
 80030fe:	f7ff fc37 	bl	8002970 <DecodeTimerInterruptHandler>
  /* USER CODE END TIM6_DAC_IRQn 0 */
  HAL_TIM_IRQHandler(&htim6);
 8003102:	4802      	ldr	r0, [pc, #8]	; (800310c <TIM6_DAC_IRQHandler+0x10>)
  /* USER CODE BEGIN TIM6_DAC_IRQn 1 */

  /* USER CODE END TIM6_DAC_IRQn 1 */
}
 8003104:	e8bd 4008 	ldmia.w	sp!, {r3, lr}
  HAL_TIM_IRQHandler(&htim6);
 8003108:	f7fe bc6d 	b.w	80019e6 <HAL_TIM_IRQHandler>
 800310c:	20000630 	.word	0x20000630

08003110 <SystemInit>:
  */
void SystemInit(void)
{
  /* FPU settings ------------------------------------------------------------*/
  #if (__FPU_PRESENT == 1) && (__FPU_USED == 1)
    SCB->CPACR |= ((3UL << 10*2)|(3UL << 11*2));  /* set CP10 and CP11 Full Access */
 8003110:	490f      	ldr	r1, [pc, #60]	; (8003150 <SystemInit+0x40>)
 8003112:	f8d1 3088 	ldr.w	r3, [r1, #136]	; 0x88
 8003116:	f443 0370 	orr.w	r3, r3, #15728640	; 0xf00000
 800311a:	f8c1 3088 	str.w	r3, [r1, #136]	; 0x88
  #endif
  /* Reset the RCC clock configuration to the default reset state ------------*/
  /* Set HSION bit */
  RCC->CR |= (uint32_t)0x00000001;
 800311e:	4b0d      	ldr	r3, [pc, #52]	; (8003154 <SystemInit+0x44>)
 8003120:	681a      	ldr	r2, [r3, #0]

  /* Reset CFGR register */
  RCC->CFGR = 0x00000000;
 8003122:	2000      	movs	r0, #0
  RCC->CR |= (uint32_t)0x00000001;
 8003124:	f042 0201 	orr.w	r2, r2, #1
 8003128:	601a      	str	r2, [r3, #0]
  RCC->CFGR = 0x00000000;
 800312a:	6098      	str	r0, [r3, #8]

  /* Reset HSEON, CSSON and PLLON bits */
  RCC->CR &= (uint32_t)0xFEF6FFFF;
 800312c:	681a      	ldr	r2, [r3, #0]
 800312e:	f022 7284 	bic.w	r2, r2, #17301504	; 0x1080000
 8003132:	f422 3280 	bic.w	r2, r2, #65536	; 0x10000
 8003136:	601a      	str	r2, [r3, #0]

  /* Reset PLLCFGR register */
  RCC->PLLCFGR = 0x24003010;
 8003138:	4a07      	ldr	r2, [pc, #28]	; (8003158 <SystemInit+0x48>)
 800313a:	605a      	str	r2, [r3, #4]

  /* Reset HSEBYP bit */
  RCC->CR &= (uint32_t)0xFFFBFFFF;
 800313c:	681a      	ldr	r2, [r3, #0]
 800313e:	f422 2280 	bic.w	r2, r2, #262144	; 0x40000
 8003142:	601a      	str	r2, [r3, #0]

  /* Disable all interrupts */
  RCC->CIR = 0x00000000;
 8003144:	60d8      	str	r0, [r3, #12]

  /* Configure the Vector Table location add offset address ------------------*/
#ifdef VECT_TAB_SRAM
  SCB->VTOR = SRAM_BASE | VECT_TAB_OFFSET; /* Vector Table Relocation in Internal SRAM */
#else
  SCB->VTOR = FLASH_BASE | VECT_TAB_OFFSET; /* Vector Table Relocation in Internal FLASH */
 8003146:	f04f 6300 	mov.w	r3, #134217728	; 0x8000000
 800314a:	608b      	str	r3, [r1, #8]
 800314c:	4770      	bx	lr
 800314e:	bf00      	nop
 8003150:	e000ed00 	.word	0xe000ed00
 8003154:	40023800 	.word	0x40023800
 8003158:	24003010 	.word	0x24003010

0800315c <MX_TIM6_Init>:
  HAL_TIM_MspPostInit(&htim5);

}
/* TIM6 init function */
void MX_TIM6_Init(void)
{
 800315c:	b513      	push	{r0, r1, r4, lr}
  TIM_MasterConfigTypeDef sMasterConfig = {0};

  htim6.Instance = TIM6;
  htim6.Init.Prescaler = 4800 - 1;
 800315e:	4a0e      	ldr	r2, [pc, #56]	; (8003198 <MX_TIM6_Init+0x3c>)
  htim6.Instance = TIM6;
 8003160:	480e      	ldr	r0, [pc, #56]	; (800319c <MX_TIM6_Init+0x40>)
  htim6.Init.Prescaler = 4800 - 1;
 8003162:	f241 23bf 	movw	r3, #4799	; 0x12bf
  TIM_MasterConfigTypeDef sMasterConfig = {0};
 8003166:	2400      	movs	r4, #0
  htim6.Init.Prescaler = 4800 - 1;
 8003168:	e880 000c 	stmia.w	r0, {r2, r3}
  htim6.Init.CounterMode = TIM_COUNTERMODE_UP;
  htim6.Init.Period = 100 - 1 ;
 800316c:	2363      	movs	r3, #99	; 0x63
  TIM_MasterConfigTypeDef sMasterConfig = {0};
 800316e:	9400      	str	r4, [sp, #0]
 8003170:	9401      	str	r4, [sp, #4]
  htim6.Init.CounterMode = TIM_COUNTERMODE_UP;
 8003172:	6084      	str	r4, [r0, #8]
  htim6.Init.Period = 100 - 1 ;
 8003174:	60c3      	str	r3, [r0, #12]
  if (HAL_TIM_Base_Init(&htim6) != HAL_OK)
 8003176:	f7fe fd0b 	bl	8001b90 <HAL_TIM_Base_Init>
 800317a:	b108      	cbz	r0, 8003180 <MX_TIM6_Init+0x24>
  {
    Error_Handler();
 800317c:	f7ff ff78 	bl	8003070 <Error_Handler>
  }
  sMasterConfig.MasterOutputTrigger = TIM_TRGO_RESET;
  sMasterConfig.MasterSlaveMode = TIM_MASTERSLAVEMODE_DISABLE;
  if (HAL_TIMEx_MasterConfigSynchronization(&htim6, &sMasterConfig) != HAL_OK)
 8003180:	4669      	mov	r1, sp
 8003182:	4806      	ldr	r0, [pc, #24]	; (800319c <MX_TIM6_Init+0x40>)
  sMasterConfig.MasterOutputTrigger = TIM_TRGO_RESET;
 8003184:	9400      	str	r4, [sp, #0]
  sMasterConfig.MasterSlaveMode = TIM_MASTERSLAVEMODE_DISABLE;
 8003186:	9401      	str	r4, [sp, #4]
  if (HAL_TIMEx_MasterConfigSynchronization(&htim6, &sMasterConfig) != HAL_OK)
 8003188:	f7fe fe50 	bl	8001e2c <HAL_TIMEx_MasterConfigSynchronization>
 800318c:	b108      	cbz	r0, 8003192 <MX_TIM6_Init+0x36>
  {
    Error_Handler();
 800318e:	f7ff ff6f 	bl	8003070 <Error_Handler>
  }

}
 8003192:	b002      	add	sp, #8
 8003194:	bd10      	pop	{r4, pc}
 8003196:	bf00      	nop
 8003198:	40001000 	.word	0x40001000
 800319c:	20000630 	.word	0x20000630

080031a0 <HAL_TIM_PWM_MspInit>:

void HAL_TIM_PWM_MspInit(TIM_HandleTypeDef* tim_pwmHandle)
{
 80031a0:	b507      	push	{r0, r1, r2, lr}

  if(tim_pwmHandle->Instance==TIM5)
 80031a2:	4b0d      	ldr	r3, [pc, #52]	; (80031d8 <HAL_TIM_PWM_MspInit+0x38>)
 80031a4:	6802      	ldr	r2, [r0, #0]
 80031a6:	429a      	cmp	r2, r3
 80031a8:	d113      	bne.n	80031d2 <HAL_TIM_PWM_MspInit+0x32>
  {
  /* USER CODE BEGIN TIM5_MspInit 0 */

  /* USER CODE END TIM5_MspInit 0 */
    /* TIM5 clock enable */
    __HAL_RCC_TIM5_CLK_ENABLE();
 80031aa:	2200      	movs	r2, #0
 80031ac:	f503 330b 	add.w	r3, r3, #142336	; 0x22c00
 80031b0:	9201      	str	r2, [sp, #4]
 80031b2:	6c19      	ldr	r1, [r3, #64]	; 0x40
 80031b4:	f041 0108 	orr.w	r1, r1, #8
 80031b8:	6419      	str	r1, [r3, #64]	; 0x40
 80031ba:	6c1b      	ldr	r3, [r3, #64]	; 0x40
 80031bc:	f003 0308 	and.w	r3, r3, #8
 80031c0:	9301      	str	r3, [sp, #4]

    /* TIM5 interrupt Init */
    HAL_NVIC_SetPriority(TIM5_IRQn, 0, 0);
 80031c2:	2032      	movs	r0, #50	; 0x32
 80031c4:	4611      	mov	r1, r2
    __HAL_RCC_TIM5_CLK_ENABLE();
 80031c6:	9b01      	ldr	r3, [sp, #4]
    HAL_NVIC_SetPriority(TIM5_IRQn, 0, 0);
 80031c8:	f7fd fdf2 	bl	8000db0 <HAL_NVIC_SetPriority>
    HAL_NVIC_EnableIRQ(TIM5_IRQn);
 80031cc:	2032      	movs	r0, #50	; 0x32
 80031ce:	f7fd fe23 	bl	8000e18 <HAL_NVIC_EnableIRQ>
  /* USER CODE BEGIN TIM5_MspInit 1 */

  /* USER CODE END TIM5_MspInit 1 */
  }
}
 80031d2:	b003      	add	sp, #12
 80031d4:	f85d fb04 	ldr.w	pc, [sp], #4
 80031d8:	40000c00 	.word	0x40000c00

080031dc <HAL_TIM_Base_MspInit>:

void HAL_TIM_Base_MspInit(TIM_HandleTypeDef* tim_baseHandle)
{
 80031dc:	b507      	push	{r0, r1, r2, lr}

  if(tim_baseHandle->Instance==TIM6)
 80031de:	4b0d      	ldr	r3, [pc, #52]	; (8003214 <HAL_TIM_Base_MspInit+0x38>)
 80031e0:	6802      	ldr	r2, [r0, #0]
 80031e2:	429a      	cmp	r2, r3
 80031e4:	d113      	bne.n	800320e <HAL_TIM_Base_MspInit+0x32>
  {
  /* USER CODE BEGIN TIM6_MspInit 0 */

  /* USER CODE END TIM6_MspInit 0 */
    /* TIM6 clock enable */
    __HAL_RCC_TIM6_CLK_ENABLE();
 80031e6:	2200      	movs	r2, #0
 80031e8:	f503 330a 	add.w	r3, r3, #141312	; 0x22800
 80031ec:	9201      	str	r2, [sp, #4]
 80031ee:	6c19      	ldr	r1, [r3, #64]	; 0x40
 80031f0:	f041 0110 	orr.w	r1, r1, #16
 80031f4:	6419      	str	r1, [r3, #64]	; 0x40
 80031f6:	6c1b      	ldr	r3, [r3, #64]	; 0x40
 80031f8:	f003 0310 	and.w	r3, r3, #16
 80031fc:	9301      	str	r3, [sp, #4]

    /* TIM6 interrupt Init */
    HAL_NVIC_SetPriority(TIM6_DAC_IRQn, 0, 0);
 80031fe:	2036      	movs	r0, #54	; 0x36
 8003200:	4611      	mov	r1, r2
    __HAL_RCC_TIM6_CLK_ENABLE();
 8003202:	9b01      	ldr	r3, [sp, #4]
    HAL_NVIC_SetPriority(TIM6_DAC_IRQn, 0, 0);
 8003204:	f7fd fdd4 	bl	8000db0 <HAL_NVIC_SetPriority>
    HAL_NVIC_EnableIRQ(TIM6_DAC_IRQn);
 8003208:	2036      	movs	r0, #54	; 0x36
 800320a:	f7fd fe05 	bl	8000e18 <HAL_NVIC_EnableIRQ>
  /* USER CODE BEGIN TIM6_MspInit 1 */

  /* USER CODE END TIM6_MspInit 1 */
  }
}
 800320e:	b003      	add	sp, #12
 8003210:	f85d fb04 	ldr.w	pc, [sp], #4
 8003214:	40001000 	.word	0x40001000

08003218 <HAL_TIM_MspPostInit>:
void HAL_TIM_MspPostInit(TIM_HandleTypeDef* timHandle)
{
 8003218:	b510      	push	{r4, lr}
 800321a:	4604      	mov	r4, r0
 800321c:	b086      	sub	sp, #24

  GPIO_InitTypeDef GPIO_InitStruct = {0};
 800321e:	2214      	movs	r2, #20
 8003220:	2100      	movs	r1, #0
 8003222:	a801      	add	r0, sp, #4
 8003224:	f000 f960 	bl	80034e8 <memset>
  if(timHandle->Instance==TIM5)
 8003228:	6822      	ldr	r2, [r4, #0]
 800322a:	4b0d      	ldr	r3, [pc, #52]	; (8003260 <HAL_TIM_MspPostInit+0x48>)
 800322c:	429a      	cmp	r2, r3
 800322e:	d114      	bne.n	800325a <HAL_TIM_MspPostInit+0x42>
  {
  /* USER CODE BEGIN TIM5_MspPostInit 0 */

  /* USER CODE END TIM5_MspPostInit 0 */
  
    __HAL_RCC_GPIOA_CLK_ENABLE();
 8003230:	2300      	movs	r3, #0
 8003232:	9300      	str	r3, [sp, #0]
 8003234:	4b0b      	ldr	r3, [pc, #44]	; (8003264 <HAL_TIM_MspPostInit+0x4c>)
    GPIO_InitStruct.Pin = MOTOR_STEP_1_Pin;
    GPIO_InitStruct.Mode = GPIO_MODE_AF_PP;
    GPIO_InitStruct.Pull = GPIO_NOPULL;
    GPIO_InitStruct.Speed = GPIO_SPEED_FREQ_LOW;
    GPIO_InitStruct.Alternate = GPIO_AF2_TIM5;
    HAL_GPIO_Init(MOTOR_STEP_1_GPIO_Port, &GPIO_InitStruct);
 8003236:	480c      	ldr	r0, [pc, #48]	; (8003268 <HAL_TIM_MspPostInit+0x50>)
    __HAL_RCC_GPIOA_CLK_ENABLE();
 8003238:	6b1a      	ldr	r2, [r3, #48]	; 0x30
 800323a:	f042 0201 	orr.w	r2, r2, #1
 800323e:	631a      	str	r2, [r3, #48]	; 0x30
 8003240:	6b1b      	ldr	r3, [r3, #48]	; 0x30
 8003242:	f003 0301 	and.w	r3, r3, #1
 8003246:	9300      	str	r3, [sp, #0]
 8003248:	9b00      	ldr	r3, [sp, #0]
    GPIO_InitStruct.Pin = MOTOR_STEP_1_Pin;
 800324a:	2301      	movs	r3, #1
 800324c:	9301      	str	r3, [sp, #4]
    HAL_GPIO_Init(MOTOR_STEP_1_GPIO_Port, &GPIO_InitStruct);
 800324e:	a901      	add	r1, sp, #4
    GPIO_InitStruct.Mode = GPIO_MODE_AF_PP;
 8003250:	2302      	movs	r3, #2
 8003252:	9302      	str	r3, [sp, #8]
    GPIO_InitStruct.Alternate = GPIO_AF2_TIM5;
 8003254:	9305      	str	r3, [sp, #20]
    HAL_GPIO_Init(MOTOR_STEP_1_GPIO_Port, &GPIO_InitStruct);
 8003256:	f7fd ff9b 	bl	8001190 <HAL_GPIO_Init>
  /* USER CODE BEGIN TIM5_MspPostInit 1 */

  /* USER CODE END TIM5_MspPostInit 1 */
  }

}
 800325a:	b006      	add	sp, #24
 800325c:	bd10      	pop	{r4, pc}
 800325e:	bf00      	nop
 8003260:	40000c00 	.word	0x40000c00
 8003264:	40023800 	.word	0x40023800
 8003268:	40020000 	.word	0x40020000

0800326c <MX_TIM5_Init>:
{
 800326c:	b510      	push	{r4, lr}
  TIM_MasterConfigTypeDef sMasterConfig = {0};
 800326e:	2400      	movs	r4, #0
{
 8003270:	b08a      	sub	sp, #40	; 0x28
  TIM_OC_InitTypeDef sConfigOC = {0};
 8003272:	221c      	movs	r2, #28
 8003274:	4621      	mov	r1, r4
 8003276:	a803      	add	r0, sp, #12
  TIM_MasterConfigTypeDef sMasterConfig = {0};
 8003278:	9401      	str	r4, [sp, #4]
 800327a:	9402      	str	r4, [sp, #8]
  TIM_OC_InitTypeDef sConfigOC = {0};
 800327c:	f000 f934 	bl	80034e8 <memset>
  htim5.Instance = TIM5;
 8003280:	4813      	ldr	r0, [pc, #76]	; (80032d0 <MX_TIM5_Init+0x64>)
 8003282:	4b14      	ldr	r3, [pc, #80]	; (80032d4 <MX_TIM5_Init+0x68>)
  htim5.Init.CounterMode = TIM_COUNTERMODE_UP;
 8003284:	6084      	str	r4, [r0, #8]
  htim5.Init.Prescaler = 0;
 8003286:	e880 0018 	stmia.w	r0, {r3, r4}
  htim5.Init.Period = 0;
 800328a:	60c4      	str	r4, [r0, #12]
  htim5.Init.ClockDivision = TIM_CLOCKDIVISION_DIV1;
 800328c:	6104      	str	r4, [r0, #16]
  if (HAL_TIM_PWM_Init(&htim5) != HAL_OK)
 800328e:	f7fe fc99 	bl	8001bc4 <HAL_TIM_PWM_Init>
 8003292:	b108      	cbz	r0, 8003298 <MX_TIM5_Init+0x2c>
    Error_Handler();
 8003294:	f7ff feec 	bl	8003070 <Error_Handler>
  if (HAL_TIMEx_MasterConfigSynchronization(&htim5, &sMasterConfig) != HAL_OK)
 8003298:	a901      	add	r1, sp, #4
 800329a:	480d      	ldr	r0, [pc, #52]	; (80032d0 <MX_TIM5_Init+0x64>)
  sMasterConfig.MasterOutputTrigger = TIM_TRGO_RESET;
 800329c:	9401      	str	r4, [sp, #4]
  sMasterConfig.MasterSlaveMode = TIM_MASTERSLAVEMODE_DISABLE;
 800329e:	9402      	str	r4, [sp, #8]
  if (HAL_TIMEx_MasterConfigSynchronization(&htim5, &sMasterConfig) != HAL_OK)
 80032a0:	f7fe fdc4 	bl	8001e2c <HAL_TIMEx_MasterConfigSynchronization>
 80032a4:	b108      	cbz	r0, 80032aa <MX_TIM5_Init+0x3e>
    Error_Handler();
 80032a6:	f7ff fee3 	bl	8003070 <Error_Handler>
  sConfigOC.Pulse = 0;
 80032aa:	2200      	movs	r2, #0
  sConfigOC.OCMode = TIM_OCMODE_PWM1;
 80032ac:	2360      	movs	r3, #96	; 0x60
  if (HAL_TIM_PWM_ConfigChannel(&htim5, &sConfigOC, TIM_CHANNEL_1) != HAL_OK)
 80032ae:	a903      	add	r1, sp, #12
 80032b0:	4807      	ldr	r0, [pc, #28]	; (80032d0 <MX_TIM5_Init+0x64>)
  sConfigOC.OCMode = TIM_OCMODE_PWM1;
 80032b2:	9303      	str	r3, [sp, #12]
  sConfigOC.Pulse = 0;
 80032b4:	9204      	str	r2, [sp, #16]
  sConfigOC.OCPolarity = TIM_OCPOLARITY_HIGH;
 80032b6:	9205      	str	r2, [sp, #20]
  sConfigOC.OCFastMode = TIM_OCFAST_DISABLE;
 80032b8:	9207      	str	r2, [sp, #28]
  if (HAL_TIM_PWM_ConfigChannel(&htim5, &sConfigOC, TIM_CHANNEL_1) != HAL_OK)
 80032ba:	f7fe fcc9 	bl	8001c50 <HAL_TIM_PWM_ConfigChannel>
 80032be:	b108      	cbz	r0, 80032c4 <MX_TIM5_Init+0x58>
    Error_Handler();
 80032c0:	f7ff fed6 	bl	8003070 <Error_Handler>
  HAL_TIM_MspPostInit(&htim5);
 80032c4:	4802      	ldr	r0, [pc, #8]	; (80032d0 <MX_TIM5_Init+0x64>)
 80032c6:	f7ff ffa7 	bl	8003218 <HAL_TIM_MspPostInit>
}
 80032ca:	b00a      	add	sp, #40	; 0x28
 80032cc:	bd10      	pop	{r4, pc}
 80032ce:	bf00      	nop
 80032d0:	200005f4 	.word	0x200005f4
 80032d4:	40000c00 	.word	0x40000c00

080032d8 <MX_USART1_UART_Init>:
DMA_HandleTypeDef hdma_usart2_rx;

/* USART1 init function */

void MX_USART1_UART_Init(void)
{
 80032d8:	b508      	push	{r3, lr}

  huart1.Instance = USART1;
 80032da:	480b      	ldr	r0, [pc, #44]	; (8003308 <MX_USART1_UART_Init+0x30>)
  huart1.Init.BaudRate = 115200;
 80032dc:	4b0b      	ldr	r3, [pc, #44]	; (800330c <MX_USART1_UART_Init+0x34>)
 80032de:	f44f 3ee1 	mov.w	lr, #115200	; 0x1c200
 80032e2:	e880 4008 	stmia.w	r0, {r3, lr}
  huart1.Init.WordLength = UART_WORDLENGTH_8B;
  huart1.Init.StopBits = UART_STOPBITS_1;
  huart1.Init.Parity = UART_PARITY_NONE;
  huart1.Init.Mode = UART_MODE_TX_RX;
 80032e6:	220c      	movs	r2, #12
  huart1.Init.WordLength = UART_WORDLENGTH_8B;
 80032e8:	2300      	movs	r3, #0
 80032ea:	6083      	str	r3, [r0, #8]
  huart1.Init.StopBits = UART_STOPBITS_1;
 80032ec:	60c3      	str	r3, [r0, #12]
  huart1.Init.Parity = UART_PARITY_NONE;
 80032ee:	6103      	str	r3, [r0, #16]
  huart1.Init.Mode = UART_MODE_TX_RX;
 80032f0:	6142      	str	r2, [r0, #20]
  huart1.Init.HwFlowCtl = UART_HWCONTROL_NONE;
 80032f2:	6183      	str	r3, [r0, #24]
  huart1.Init.OverSampling = UART_OVERSAMPLING_16;
 80032f4:	61c3      	str	r3, [r0, #28]
  if (HAL_UART_Init(&huart1) != HAL_OK)
 80032f6:	f7fe ff0d 	bl	8002114 <HAL_UART_Init>
 80032fa:	b118      	cbz	r0, 8003304 <MX_USART1_UART_Init+0x2c>
  {
    Error_Handler();
  }

}
 80032fc:	e8bd 4008 	ldmia.w	sp!, {r3, lr}
    Error_Handler();
 8003300:	f7ff beb6 	b.w	8003070 <Error_Handler>
 8003304:	bd08      	pop	{r3, pc}
 8003306:	bf00      	nop
 8003308:	200006cc 	.word	0x200006cc
 800330c:	40011000 	.word	0x40011000

08003310 <MX_USART2_UART_Init>:
/* USART2 init function */

void MX_USART2_UART_Init(void)
{
 8003310:	b508      	push	{r3, lr}

  huart2.Instance = USART2;
 8003312:	480b      	ldr	r0, [pc, #44]	; (8003340 <MX_USART2_UART_Init+0x30>)
  huart2.Init.BaudRate = 115200;
 8003314:	4b0b      	ldr	r3, [pc, #44]	; (8003344 <MX_USART2_UART_Init+0x34>)
 8003316:	f44f 3ee1 	mov.w	lr, #115200	; 0x1c200
 800331a:	e880 4008 	stmia.w	r0, {r3, lr}
  huart2.Init.WordLength = UART_WORDLENGTH_8B;
  huart2.Init.StopBits = UART_STOPBITS_1;
  huart2.Init.Parity = UART_PARITY_NONE;
  huart2.Init.Mode = UART_MODE_TX_RX;
 800331e:	220c      	movs	r2, #12
  huart2.Init.WordLength = UART_WORDLENGTH_8B;
 8003320:	2300      	movs	r3, #0
 8003322:	6083      	str	r3, [r0, #8]
  huart2.Init.StopBits = UART_STOPBITS_1;
 8003324:	60c3      	str	r3, [r0, #12]
  huart2.Init.Parity = UART_PARITY_NONE;
 8003326:	6103      	str	r3, [r0, #16]
  huart2.Init.Mode = UART_MODE_TX_RX;
 8003328:	6142      	str	r2, [r0, #20]
  huart2.Init.HwFlowCtl = UART_HWCONTROL_NONE;
 800332a:	6183      	str	r3, [r0, #24]
  huart2.Init.OverSampling = UART_OVERSAMPLING_16;
 800332c:	61c3      	str	r3, [r0, #28]
  if (HAL_UART_Init(&huart2) != HAL_OK)
 800332e:	f7fe fef1 	bl	8002114 <HAL_UART_Init>
 8003332:	b118      	cbz	r0, 800333c <MX_USART2_UART_Init+0x2c>
  {
    Error_Handler();
  }

}
 8003334:	e8bd 4008 	ldmia.w	sp!, {r3, lr}
    Error_Handler();
 8003338:	f7ff be9a 	b.w	8003070 <Error_Handler>
 800333c:	bd08      	pop	{r3, pc}
 800333e:	bf00      	nop
 8003340:	2000070c 	.word	0x2000070c
 8003344:	40004400 	.word	0x40004400

08003348 <HAL_UART_MspInit>:

void HAL_UART_MspInit(UART_HandleTypeDef* uartHandle)
{
 8003348:	b570      	push	{r4, r5, r6, lr}

  GPIO_InitTypeDef GPIO_InitStruct = {0};
 800334a:	2214      	movs	r2, #20
{
 800334c:	b08a      	sub	sp, #40	; 0x28
 800334e:	4606      	mov	r6, r0
  GPIO_InitTypeDef GPIO_InitStruct = {0};
 8003350:	2100      	movs	r1, #0
 8003352:	eb0d 0002 	add.w	r0, sp, r2
 8003356:	f000 f8c7 	bl	80034e8 <memset>
  if(uartHandle->Instance==USART1)
 800335a:	6833      	ldr	r3, [r6, #0]
 800335c:	4a34      	ldr	r2, [pc, #208]	; (8003430 <HAL_UART_MspInit+0xe8>)
 800335e:	4293      	cmp	r3, r2
 8003360:	d125      	bne.n	80033ae <HAL_UART_MspInit+0x66>
  {
  /* USER CODE BEGIN USART1_MspInit 0 */

  /* USER CODE END USART1_MspInit 0 */
    /* USART1 clock enable */
    __HAL_RCC_USART1_CLK_ENABLE();
 8003362:	4b34      	ldr	r3, [pc, #208]	; (8003434 <HAL_UART_MspInit+0xec>)
    GPIO_InitStruct.Pin = DEBUG_LOG_SERIAL_TX_Pin|DEBUG_LOG_SERIAL_RX_Pin;
    GPIO_InitStruct.Mode = GPIO_MODE_AF_PP;
    GPIO_InitStruct.Pull = GPIO_PULLUP;
    GPIO_InitStruct.Speed = GPIO_SPEED_FREQ_VERY_HIGH;
    GPIO_InitStruct.Alternate = GPIO_AF7_USART1;
    HAL_GPIO_Init(GPIOB, &GPIO_InitStruct);
 8003364:	4834      	ldr	r0, [pc, #208]	; (8003438 <HAL_UART_MspInit+0xf0>)
    __HAL_RCC_USART1_CLK_ENABLE();
 8003366:	2100      	movs	r1, #0
 8003368:	9101      	str	r1, [sp, #4]
 800336a:	6c5a      	ldr	r2, [r3, #68]	; 0x44
 800336c:	f042 0210 	orr.w	r2, r2, #16
 8003370:	645a      	str	r2, [r3, #68]	; 0x44
 8003372:	6c5a      	ldr	r2, [r3, #68]	; 0x44
 8003374:	f002 0210 	and.w	r2, r2, #16
 8003378:	9201      	str	r2, [sp, #4]
 800337a:	9a01      	ldr	r2, [sp, #4]
    __HAL_RCC_GPIOB_CLK_ENABLE();
 800337c:	9102      	str	r1, [sp, #8]
 800337e:	6b1a      	ldr	r2, [r3, #48]	; 0x30
 8003380:	f042 0202 	orr.w	r2, r2, #2
 8003384:	631a      	str	r2, [r3, #48]	; 0x30
 8003386:	6b1b      	ldr	r3, [r3, #48]	; 0x30
 8003388:	f003 0302 	and.w	r3, r3, #2
 800338c:	9302      	str	r3, [sp, #8]
 800338e:	9b02      	ldr	r3, [sp, #8]
    GPIO_InitStruct.Pin = DEBUG_LOG_SERIAL_TX_Pin|DEBUG_LOG_SERIAL_RX_Pin;
 8003390:	23c0      	movs	r3, #192	; 0xc0
 8003392:	9305      	str	r3, [sp, #20]
    GPIO_InitStruct.Mode = GPIO_MODE_AF_PP;
 8003394:	2302      	movs	r3, #2
 8003396:	9306      	str	r3, [sp, #24]
    GPIO_InitStruct.Pull = GPIO_PULLUP;
 8003398:	2301      	movs	r3, #1
 800339a:	9307      	str	r3, [sp, #28]
    GPIO_InitStruct.Speed = GPIO_SPEED_FREQ_VERY_HIGH;
 800339c:	2303      	movs	r3, #3
 800339e:	9308      	str	r3, [sp, #32]
    HAL_GPIO_Init(GPIOB, &GPIO_InitStruct);
 80033a0:	a905      	add	r1, sp, #20
    GPIO_InitStruct.Alternate = GPIO_AF7_USART1;
 80033a2:	2307      	movs	r3, #7
 80033a4:	9309      	str	r3, [sp, #36]	; 0x24
    HAL_GPIO_Init(GPIOB, &GPIO_InitStruct);
 80033a6:	f7fd fef3 	bl	8001190 <HAL_GPIO_Init>

  /* USER CODE BEGIN USART2_MspInit 1 */

  /* USER CODE END USART2_MspInit 1 */
  }
}
 80033aa:	b00a      	add	sp, #40	; 0x28
 80033ac:	bd70      	pop	{r4, r5, r6, pc}
  else if(uartHandle->Instance==USART2)
 80033ae:	4a23      	ldr	r2, [pc, #140]	; (800343c <HAL_UART_MspInit+0xf4>)
 80033b0:	4293      	cmp	r3, r2
 80033b2:	d1fa      	bne.n	80033aa <HAL_UART_MspInit+0x62>
    __HAL_RCC_USART2_CLK_ENABLE();
 80033b4:	2500      	movs	r5, #0
 80033b6:	4b1f      	ldr	r3, [pc, #124]	; (8003434 <HAL_UART_MspInit+0xec>)
 80033b8:	9503      	str	r5, [sp, #12]
 80033ba:	6c1a      	ldr	r2, [r3, #64]	; 0x40
    HAL_GPIO_Init(GPIOA, &GPIO_InitStruct);
 80033bc:	4820      	ldr	r0, [pc, #128]	; (8003440 <HAL_UART_MspInit+0xf8>)
    hdma_usart2_rx.Instance = DMA1_Stream5;
 80033be:	4c21      	ldr	r4, [pc, #132]	; (8003444 <HAL_UART_MspInit+0xfc>)
    __HAL_RCC_USART2_CLK_ENABLE();
 80033c0:	f442 3200 	orr.w	r2, r2, #131072	; 0x20000
 80033c4:	641a      	str	r2, [r3, #64]	; 0x40
 80033c6:	6c1a      	ldr	r2, [r3, #64]	; 0x40
 80033c8:	f402 3200 	and.w	r2, r2, #131072	; 0x20000
 80033cc:	9203      	str	r2, [sp, #12]
 80033ce:	9a03      	ldr	r2, [sp, #12]
    __HAL_RCC_GPIOA_CLK_ENABLE();
 80033d0:	9504      	str	r5, [sp, #16]
 80033d2:	6b1a      	ldr	r2, [r3, #48]	; 0x30
 80033d4:	f042 0201 	orr.w	r2, r2, #1
 80033d8:	631a      	str	r2, [r3, #48]	; 0x30
 80033da:	6b1b      	ldr	r3, [r3, #48]	; 0x30
 80033dc:	f003 0301 	and.w	r3, r3, #1
 80033e0:	9304      	str	r3, [sp, #16]
 80033e2:	9b04      	ldr	r3, [sp, #16]
    GPIO_InitStruct.Pin = USART_TX_Pin|USART_RX_Pin;
 80033e4:	230c      	movs	r3, #12
 80033e6:	9305      	str	r3, [sp, #20]
    GPIO_InitStruct.Mode = GPIO_MODE_AF_PP;
 80033e8:	2302      	movs	r3, #2
 80033ea:	9306      	str	r3, [sp, #24]
    GPIO_InitStruct.Pull = GPIO_PULLUP;
 80033ec:	2301      	movs	r3, #1
 80033ee:	9307      	str	r3, [sp, #28]
    GPIO_InitStruct.Speed = GPIO_SPEED_FREQ_VERY_HIGH;
 80033f0:	2303      	movs	r3, #3
 80033f2:	9308      	str	r3, [sp, #32]
    HAL_GPIO_Init(GPIOA, &GPIO_InitStruct);
 80033f4:	a905      	add	r1, sp, #20
    GPIO_InitStruct.Alternate = GPIO_AF7_USART2;
 80033f6:	2307      	movs	r3, #7
 80033f8:	9309      	str	r3, [sp, #36]	; 0x24
    HAL_GPIO_Init(GPIOA, &GPIO_InitStruct);
 80033fa:	f7fd fec9 	bl	8001190 <HAL_GPIO_Init>
    hdma_usart2_rx.Init.Channel = DMA_CHANNEL_4;
 80033fe:	4a12      	ldr	r2, [pc, #72]	; (8003448 <HAL_UART_MspInit+0x100>)
    hdma_usart2_rx.Init.Direction = DMA_PERIPH_TO_MEMORY;
 8003400:	60a5      	str	r5, [r4, #8]
    hdma_usart2_rx.Init.Channel = DMA_CHANNEL_4;
 8003402:	f04f 6300 	mov.w	r3, #134217728	; 0x8000000
 8003406:	e884 000c 	stmia.w	r4, {r2, r3}
    if (HAL_DMA_Init(&hdma_usart2_rx) != HAL_OK)
 800340a:	4620      	mov	r0, r4
    hdma_usart2_rx.Init.MemInc = DMA_MINC_ENABLE;
 800340c:	f44f 6380 	mov.w	r3, #1024	; 0x400
    hdma_usart2_rx.Init.PeriphInc = DMA_PINC_DISABLE;
 8003410:	60e5      	str	r5, [r4, #12]
    hdma_usart2_rx.Init.MemInc = DMA_MINC_ENABLE;
 8003412:	6123      	str	r3, [r4, #16]
    hdma_usart2_rx.Init.PeriphDataAlignment = DMA_PDATAALIGN_BYTE;
 8003414:	6165      	str	r5, [r4, #20]
    hdma_usart2_rx.Init.MemDataAlignment = DMA_MDATAALIGN_BYTE;
 8003416:	61a5      	str	r5, [r4, #24]
    hdma_usart2_rx.Init.Mode = DMA_NORMAL;
 8003418:	61e5      	str	r5, [r4, #28]
    hdma_usart2_rx.Init.Priority = DMA_PRIORITY_LOW;
 800341a:	6225      	str	r5, [r4, #32]
    hdma_usart2_rx.Init.FIFOMode = DMA_FIFOMODE_DISABLE;
 800341c:	6265      	str	r5, [r4, #36]	; 0x24
    if (HAL_DMA_Init(&hdma_usart2_rx) != HAL_OK)
 800341e:	f7fd fd41 	bl	8000ea4 <HAL_DMA_Init>
 8003422:	b108      	cbz	r0, 8003428 <HAL_UART_MspInit+0xe0>
      Error_Handler();
 8003424:	f7ff fe24 	bl	8003070 <Error_Handler>
    __HAL_LINKDMA(uartHandle,hdmarx,hdma_usart2_rx);
 8003428:	6374      	str	r4, [r6, #52]	; 0x34
 800342a:	63a6      	str	r6, [r4, #56]	; 0x38
}
 800342c:	e7bd      	b.n	80033aa <HAL_UART_MspInit+0x62>
 800342e:	bf00      	nop
 8003430:	40011000 	.word	0x40011000
 8003434:	40023800 	.word	0x40023800
 8003438:	40020400 	.word	0x40020400
 800343c:	40004400 	.word	0x40004400
 8003440:	40020000 	.word	0x40020000
 8003444:	2000066c 	.word	0x2000066c
 8003448:	40026088 	.word	0x40026088

0800344c <Reset_Handler>:

    .section  .text.Reset_Handler
  .weak  Reset_Handler
  .type  Reset_Handler, %function
Reset_Handler:  
  ldr   sp, =_estack       /* set stack pointer */
 800344c:	f8df d034 	ldr.w	sp, [pc, #52]	; 8003484 <LoopFillZerobss+0x14>

/* Copy the data segment initializers from flash to SRAM */
  movs  r1, #0
 8003450:	2100      	movs	r1, #0
  b  LoopCopyDataInit
 8003452:	e003      	b.n	800345c <LoopCopyDataInit>

08003454 <CopyDataInit>:

CopyDataInit:
  ldr  r3, =_sidata
 8003454:	4b0c      	ldr	r3, [pc, #48]	; (8003488 <LoopFillZerobss+0x18>)
  ldr  r3, [r3, r1]
 8003456:	585b      	ldr	r3, [r3, r1]
  str  r3, [r0, r1]
 8003458:	5043      	str	r3, [r0, r1]
  adds  r1, r1, #4
 800345a:	3104      	adds	r1, #4

0800345c <LoopCopyDataInit>:
    
LoopCopyDataInit:
  ldr  r0, =_sdata
 800345c:	480b      	ldr	r0, [pc, #44]	; (800348c <LoopFillZerobss+0x1c>)
  ldr  r3, =_edata
 800345e:	4b0c      	ldr	r3, [pc, #48]	; (8003490 <LoopFillZerobss+0x20>)
  adds  r2, r0, r1
 8003460:	1842      	adds	r2, r0, r1
  cmp  r2, r3
 8003462:	429a      	cmp	r2, r3
  bcc  CopyDataInit
 8003464:	d3f6      	bcc.n	8003454 <CopyDataInit>
  ldr  r2, =_sbss
 8003466:	4a0b      	ldr	r2, [pc, #44]	; (8003494 <LoopFillZerobss+0x24>)
  b  LoopFillZerobss
 8003468:	e002      	b.n	8003470 <LoopFillZerobss>

0800346a <FillZerobss>:
/* Zero fill the bss segment. */
FillZerobss:
  movs  r3, #0
 800346a:	2300      	movs	r3, #0
  str  r3, [r2], #4
 800346c:	f842 3b04 	str.w	r3, [r2], #4

08003470 <LoopFillZerobss>:
    
LoopFillZerobss:
  ldr  r3, = _ebss
 8003470:	4b09      	ldr	r3, [pc, #36]	; (8003498 <LoopFillZerobss+0x28>)
  cmp  r2, r3
 8003472:	429a      	cmp	r2, r3
  bcc  FillZerobss
 8003474:	d3f9      	bcc.n	800346a <FillZerobss>

/* Call the clock system intitialization function.*/
  bl  SystemInit   
 8003476:	f7ff fe4b 	bl	8003110 <SystemInit>
/* Call static constructors */
    bl __libc_init_array
 800347a:	f000 f811 	bl	80034a0 <__libc_init_array>
/* Call the application's entry point.*/
  bl  main
 800347e:	f7ff fdd7 	bl	8003030 <main>
  bx  lr    
 8003482:	4770      	bx	lr
  ldr   sp, =_estack       /* set stack pointer */
 8003484:	20008000 	.word	0x20008000
  ldr  r3, =_sidata
 8003488:	0800359c 	.word	0x0800359c
  ldr  r0, =_sdata
 800348c:	20000000 	.word	0x20000000
  ldr  r3, =_edata
 8003490:	20000028 	.word	0x20000028
  ldr  r2, =_sbss
 8003494:	20000028 	.word	0x20000028
  ldr  r3, = _ebss
 8003498:	2000074c 	.word	0x2000074c

0800349c <ADC_IRQHandler>:
 * @retval None       
*/
    .section  .text.Default_Handler,"ax",%progbits
Default_Handler:
Infinite_Loop:
  b  Infinite_Loop
 800349c:	e7fe      	b.n	800349c <ADC_IRQHandler>
	...

080034a0 <__libc_init_array>:
 80034a0:	b570      	push	{r4, r5, r6, lr}
 80034a2:	4e0d      	ldr	r6, [pc, #52]	; (80034d8 <__libc_init_array+0x38>)
 80034a4:	4c0d      	ldr	r4, [pc, #52]	; (80034dc <__libc_init_array+0x3c>)
 80034a6:	1ba4      	subs	r4, r4, r6
 80034a8:	10a4      	asrs	r4, r4, #2
 80034aa:	2500      	movs	r5, #0
 80034ac:	42a5      	cmp	r5, r4
 80034ae:	d109      	bne.n	80034c4 <__libc_init_array+0x24>
 80034b0:	4e0b      	ldr	r6, [pc, #44]	; (80034e0 <__libc_init_array+0x40>)
 80034b2:	4c0c      	ldr	r4, [pc, #48]	; (80034e4 <__libc_init_array+0x44>)
 80034b4:	f000 f820 	bl	80034f8 <_init>
 80034b8:	1ba4      	subs	r4, r4, r6
 80034ba:	10a4      	asrs	r4, r4, #2
 80034bc:	2500      	movs	r5, #0
 80034be:	42a5      	cmp	r5, r4
 80034c0:	d105      	bne.n	80034ce <__libc_init_array+0x2e>
 80034c2:	bd70      	pop	{r4, r5, r6, pc}
 80034c4:	f856 3025 	ldr.w	r3, [r6, r5, lsl #2]
 80034c8:	4798      	blx	r3
 80034ca:	3501      	adds	r5, #1
 80034cc:	e7ee      	b.n	80034ac <__libc_init_array+0xc>
 80034ce:	f856 3025 	ldr.w	r3, [r6, r5, lsl #2]
 80034d2:	4798      	blx	r3
 80034d4:	3501      	adds	r5, #1
 80034d6:	e7f2      	b.n	80034be <__libc_init_array+0x1e>
 80034d8:	08003594 	.word	0x08003594
 80034dc:	08003594 	.word	0x08003594
 80034e0:	08003594 	.word	0x08003594
 80034e4:	08003598 	.word	0x08003598

080034e8 <memset>:
 80034e8:	4402      	add	r2, r0
 80034ea:	4603      	mov	r3, r0
 80034ec:	4293      	cmp	r3, r2
 80034ee:	d100      	bne.n	80034f2 <memset+0xa>
 80034f0:	4770      	bx	lr
 80034f2:	f803 1b01 	strb.w	r1, [r3], #1
 80034f6:	e7f9      	b.n	80034ec <memset+0x4>

080034f8 <_init>:
 80034f8:	b5f8      	push	{r3, r4, r5, r6, r7, lr}
 80034fa:	bf00      	nop
 80034fc:	bcf8      	pop	{r3, r4, r5, r6, r7}
 80034fe:	bc08      	pop	{r3}
 8003500:	469e      	mov	lr, r3
 8003502:	4770      	bx	lr

08003504 <_fini>:
 8003504:	b5f8      	push	{r3, r4, r5, r6, r7, lr}
 8003506:	bf00      	nop
 8003508:	bcf8      	pop	{r3, r4, r5, r6, r7}
 800350a:	bc08      	pop	{r3}
 800350c:	469e      	mov	lr, r3
 800350e:	4770      	bx	lr
